ARM Linker, RVCT2.0.1 [Build 277]

================================================================================

Image Symbol Table

    Mapping Symbols

    Sym    Value        Execution Region

    $m     0x00000440   ABSOLUTE
    $a     0x70000060   ABSOLUTE
    $a     0x7000006c   ABSOLUTE
    $a     0x70000078   ABSOLUTE
    $a     0x70000084   ABSOLUTE
    $a     0x70000090   ABSOLUTE
    $a     0x7000009c   ABSOLUTE
    $a     0x700000a8   ABSOLUTE
    $a     0x700000b4   ABSOLUTE
    $a     0x700000c0   ABSOLUTE
    $a     0x700000cc   ABSOLUTE
    $a     0x700000d8   ABSOLUTE
    $a     0x700000e4   ABSOLUTE
    $a     0x700000f0   ABSOLUTE
    $a     0x700000fc   ABSOLUTE
    $a     0x70000108   ABSOLUTE
    $a     0x70000114   ABSOLUTE
    $a     0x70000120   ABSOLUTE
    $a     0x7000012c   ABSOLUTE
    $a     0x70000138   ABSOLUTE
    $a     0x70000144   ABSOLUTE
    $a     0x70000150   ABSOLUTE
    $a     0x7000015c   ABSOLUTE
    $a     0x70000168   ABSOLUTE
    $a     0x70000174   ABSOLUTE
    $a     0x70000180   ABSOLUTE
    $a     0x7000018c   ABSOLUTE
    $a     0x70000198   ABSOLUTE
    $a     0x700001a4   ABSOLUTE
    $a     0x700001b0   ABSOLUTE
    $a     0x700001bc   ABSOLUTE
    $a     0x700001c8   ABSOLUTE
    $a     0x700001d4   ABSOLUTE
    $a     0x700001e0   ABSOLUTE
    $a     0x700001ec   ABSOLUTE
    $a     0x700001f8   ABSOLUTE
    $a     0x70000204   ABSOLUTE
    $a     0x70000210   ABSOLUTE
    $a     0x7000021c   ABSOLUTE
    $a     0x70000228   ABSOLUTE
    $a     0x70000234   ABSOLUTE
    $a     0x70000240   ABSOLUTE
    $a     0x7000024c   ABSOLUTE
    $a     0x70000258   ABSOLUTE
    $a     0x70000264   ABSOLUTE
    $a     0x70000270   ABSOLUTE
    $a     0x7000027c   ABSOLUTE
    $a     0x70000288   ABSOLUTE
    $a     0x70000294   ABSOLUTE
    $a     0x700002a0   ABSOLUTE
    $a     0x700002ac   ABSOLUTE
    $a     0x700002b8   ABSOLUTE
    $a     0x700002d0   ABSOLUTE
    $a     0x700002dc   ABSOLUTE
    $a     0x700002e8   ABSOLUTE
    $a     0x700002f4   ABSOLUTE
    $a     0x70000300   ABSOLUTE
    $a     0x70000324   ABSOLUTE
    $a     0x70000330   ABSOLUTE
    $a     0x7000033c   ABSOLUTE
    $a     0x70000348   ABSOLUTE
    $a     0x70000354   ABSOLUTE
    $a     0x70000360   ABSOLUTE
    $a     0x7000036c   ABSOLUTE
    $a     0x70000378   ABSOLUTE
    $a     0x70000384   ABSOLUTE
    $a     0x70000390   ABSOLUTE
    $a     0x7000039c   ABSOLUTE
    $a     0x700003a8   ABSOLUTE
    $a     0x700003b4   ABSOLUTE
    $a     0x700003c0   ABSOLUTE
    $a     0x700003cc   ABSOLUTE
    $a     0x700003d8   ABSOLUTE
    $a     0x700003e4   ABSOLUTE
    $a     0x700003f0   ABSOLUTE
    $a     0x700003fc   ABSOLUTE
    $a     0x70000408   ABSOLUTE
    $a     0x70000414   ABSOLUTE
    $a     0x70000420   ABSOLUTE
    $a     0x7000042c   ABSOLUTE
    $a     0x70000438   ABSOLUTE
    $a     0x70000444   ABSOLUTE
    $a     0x70000450   ABSOLUTE
    $a     0x7000045c   ABSOLUTE
    $a     0x70000468   ABSOLUTE
    $a     0x70000474   ABSOLUTE
    $a     0x70000480   ABSOLUTE
    $a     0x7000048c   ABSOLUTE
    $a     0x70000498   ABSOLUTE
    $a     0x700004a4   ABSOLUTE
    $a     0x700004b0   ABSOLUTE
    $a     0x700004bc   ABSOLUTE
    $a     0x700004c8   ABSOLUTE
    $a     0x700004d4   ABSOLUTE
    $a     0x700004e0   ABSOLUTE
    $a     0x700004ec   ABSOLUTE
    $a     0x700004f8   ABSOLUTE
    $a     0x70000504   ABSOLUTE
    $a     0x7000057c   ABSOLUTE
    $a     0x70000588   ABSOLUTE
    $a     0x70000594   ABSOLUTE
    $a     0x700005a0   ABSOLUTE
    $a     0x700005ac   ABSOLUTE
    $a     0x700005b8   ABSOLUTE
    $a     0x700005c4   ABSOLUTE
    $a     0x700005d0   ABSOLUTE
    $a     0x700005dc   ABSOLUTE
    $a     0x700005e8   ABSOLUTE
    $a     0x700005f4   ABSOLUTE
    $a     0x70000600   ABSOLUTE
    $a     0x7000060c   ABSOLUTE
    $a     0x70000618   ABSOLUTE
    $a     0x7000066c   ABSOLUTE
    $a     0x700009b4   ABSOLUTE
    $d     0x70420040   CODE
    $d     0x70420060   CODE
    $d     0x70420070   CODE
    $t     0x70420074   CODE
    $a     0x70420078   CODE
    $t     0x7042007c   CODE
    $b     0x7042009a   CODE
    $b     0x704200d6   CODE
    $b     0x704200f0   CODE
    $b     0x704200f8   CODE
    $b     0x70420104   CODE
    $b     0x7042010e   CODE
    $d     0x7042012a   CODE
    $t     0x70420154   CODE
    $b     0x70420156   CODE
    $b     0x70420160   CODE
    $b     0x7042016a   CODE
    $b     0x70420172   CODE
    $b     0x70420176   CODE
    $b     0x7042017a   CODE
    $b     0x70420184   CODE
    $b     0x70420188   CODE
    $b     0x70420198   CODE
    $b     0x704201ae   CODE
    $b     0x704201b2   CODE
    $b     0x704201ba   CODE
    $b     0x704201c0   CODE
    $b     0x704201c6   CODE
    $b     0x704201d0   CODE
    $b     0x704201d8   CODE
    $b     0x704201e0   CODE
    $b     0x704201ea   CODE
    $b     0x704201f4   CODE
    $b     0x704201f8   CODE
    $b     0x70420200   CODE
    $b     0x70420208   CODE
    $b     0x70420210   CODE
    $b     0x70420218   CODE
    $b     0x70420220   CODE
    $b     0x70420226   CODE
    $b     0x70420234   CODE
    $b     0x7042023e   CODE
    $b     0x70420248   CODE
    $b     0x70420252   CODE
    $b     0x70420258   CODE
    $b     0x7042025e   CODE
    $d     0x70420266   CODE
    $b     0x70420380   CODE
    $t     0x70420380   CODE
    $b     0x70420388   CODE
    $b     0x70420392   CODE
    $b     0x70420398   CODE
    $b     0x7042039e   CODE
    $d     0x704203a4   CODE
    $t     0x704203bc   CODE
    $b     0x704203be   CODE
    $b     0x704203c6   CODE
    $b     0x704203da   CODE
    $b     0x704203e0   CODE
    $b     0x704203f8   CODE
    $b     0x70420406   CODE
    $b     0x7042041e   CODE
    $b     0x7042042c   CODE
    $b     0x70420444   CODE
    $b     0x70420454   CODE
    $b     0x70420460   CODE
    $b     0x70420470   CODE
    $b     0x7042047c   CODE
    $b     0x70420492   CODE
    $b     0x7042049e   CODE
    $b     0x704204b4   CODE
    $b     0x704204bc   CODE
    $b     0x704204ce   CODE
    $b     0x70420514   CODE
    $d     0x7042051e   CODE
    $t     0x7042062c   CODE
    $b     0x70420636   CODE
    $b     0x7042063e   CODE
    $b     0x70420648   CODE
    $b     0x7042064c   CODE
    $b     0x7042065c   CODE
    $b     0x70420662   CODE
    $b     0x70420668   CODE
    $b     0x70420670   CODE
    $b     0x70420678   CODE
    $b     0x70420680   CODE
    $b     0x7042068e   CODE
    $b     0x7042069a   CODE
    $b     0x7042069e   CODE
    $b     0x704206ac   CODE
    $b     0x704206b0   CODE
    $b     0x704206be   CODE
    $b     0x704206c2   CODE
    $d     0x704206d2   CODE
    $t     0x70420780   CODE
    $b     0x704207c4   CODE
    $b     0x704207d6   CODE
    $b     0x7042081a   CODE
    $b     0x70420842   CODE
    $b     0x70420856   CODE
    $b     0x704208ce   CODE
    $b     0x704208d6   CODE
    $b     0x704208e4   CODE
    $b     0x704208f8   CODE
    $b     0x7042092e   CODE
    $b     0x70420938   CODE
    $b     0x70420942   CODE
    $b     0x70420952   CODE
    $b     0x704209c8   CODE
    $b     0x704209d8   CODE
    $b     0x704209fe   CODE
    $b     0x70420a04   CODE
    $b     0x70420a0e   CODE
    $b     0x70420a18   CODE
    $b     0x70420a1e   CODE
    $b     0x70420a2a   CODE
    $b     0x70420a32   CODE
    $b     0x70420a3c   CODE
    $b     0x70420a46   CODE
    $b     0x70420a50   CODE
    $b     0x70420a5e   CODE
    $b     0x70420a68   CODE
    $b     0x70420a72   CODE
    $b     0x70420a84   CODE
    $b     0x70420a8e   CODE
    $b     0x70420ae4   CODE
    $b     0x70420af2   CODE
    $b     0x70420afe   CODE
    $b     0x70420b50   CODE
    $b     0x70420b5a   CODE
    $d     0x70420b74   CODE
    $t     0x70420c54   CODE
    $b     0x70420c58   CODE
    $b     0x70420c82   CODE
    $b     0x70420c8e   CODE
    $b     0x70420ca8   CODE
    $b     0x70420cb0   CODE
    $b     0x70420cd6   CODE
    $b     0x70420cde   CODE
    $b     0x70420ce8   CODE
    $b     0x70420cf0   CODE
    $b     0x70420cfa   CODE
    $b     0x70420d02   CODE
    $b     0x70420d26   CODE
    $b     0x70420d48   CODE
    $b     0x70420d52   CODE
    $b     0x70420d8c   CODE
    $b     0x70420d96   CODE
    $b     0x70420da6   CODE
    $b     0x70420dc2   CODE
    $b     0x70420e14   CODE
    $b     0x70420e36   CODE
    $b     0x70420e46   CODE
    $b     0x70420e4c   CODE
    $b     0x70420e54   CODE
    $b     0x70420e6e   CODE
    $b     0x70420ec6   CODE
    $b     0x70420ef2   CODE
    $d     0x70420efc   CODE
    $t     0x70421000   CODE
    $b     0x7042102e   CODE
    $b     0x70421042   CODE
    $d     0x70421062   CODE
    $t     0x7042109c   CODE
    $b     0x704210b4   CODE
    $d     0x704210c0   CODE
    $t     0x704210c8   CODE
    $b     0x704210e8   CODE
    $d     0x704210f4   CODE
    $a     0x704210f8   CODE
    $d     0x70421110   CODE
    $t     0x70421118   CODE
    $b     0x7042111a   CODE
    $b     0x70421124   CODE
    $b     0x7042112e   CODE
    $b     0x70421136   CODE
    $b     0x7042113e   CODE
    $b     0x70421150   CODE
    $b     0x70421158   CODE
    $b     0x70421162   CODE
    $b     0x7042116c   CODE
    $b     0x70421174   CODE
    $b     0x7042117c   CODE
    $b     0x70421184   CODE
    $b     0x7042118c   CODE
    $b     0x70421196   CODE
    $b     0x704211a0   CODE
    $b     0x704211a8   CODE
    $b     0x704211b0   CODE
    $b     0x704211b8   CODE
    $b     0x704211c0   CODE
    $b     0x704211ca   CODE
    $b     0x704211d4   CODE
    $b     0x704211dc   CODE
    $b     0x704211e4   CODE
    $b     0x704211ec   CODE
    $b     0x704211f4   CODE
    $b     0x704211fe   CODE
    $b     0x70421208   CODE
    $b     0x70421210   CODE
    $b     0x70421218   CODE
    $b     0x70421220   CODE
    $b     0x70421228   CODE
    $b     0x70421230   CODE
    $b     0x70421240   CODE
    $b     0x70421248   CODE
    $b     0x70421250   CODE
    $b     0x7042125a   CODE
    $b     0x70421264   CODE
    $b     0x7042126c   CODE
    $b     0x70421274   CODE
    $b     0x7042127c   CODE
    $b     0x70421284   CODE
    $b     0x7042128c   CODE
    $b     0x7042129c   CODE
    $b     0x704212a4   CODE
    $b     0x704212ac   CODE
    $b     0x704212b4   CODE
    $b     0x704212bc   CODE
    $b     0x704212c6   CODE
    $b     0x704212d0   CODE
    $b     0x704212d8   CODE
    $b     0x704212e0   CODE
    $b     0x704212e8   CODE
    $b     0x704212f0   CODE
    $b     0x704212f8   CODE
    $b     0x70421308   CODE
    $b     0x70421310   CODE
    $b     0x70421318   CODE
    $b     0x70421320   CODE
    $b     0x7042132a   CODE
    $b     0x7042133a   CODE
    $b     0x70421344   CODE
    $b     0x7042134e   CODE
    $b     0x70421356   CODE
    $b     0x7042135e   CODE
    $b     0x70421366   CODE
    $b     0x7042136e   CODE
    $b     0x70421376   CODE
    $b     0x70421386   CODE
    $b     0x7042138e   CODE
    $b     0x70421396   CODE
    $b     0x7042139e   CODE
    $d     0x704213a4   CODE
    $t     0x704213a8   CODE
    $b     0x704213b4   CODE
    $b     0x704213cc   CODE
    $b     0x704213d2   CODE
    $b     0x70421400   CODE
    $b     0x70421428   CODE
    $b     0x7042142e   CODE
    $b     0x70421442   CODE
    $b     0x7042144c   CODE
    $b     0x7042147e   CODE
    $b     0x704214aa   CODE
    $b     0x704214dc   CODE
    $b     0x70421510   CODE
    $b     0x7042156c   CODE
    $b     0x70421578   CODE
    $b     0x70421582   CODE
    $b     0x704215ac   CODE
    $b     0x704215ba   CODE
    $b     0x70421614   CODE
    $b     0x70421672   CODE
    $b     0x7042167a   CODE
    $b     0x70421682   CODE
    $b     0x7042168a   CODE
    $b     0x704216bc   CODE
    $b     0x704216cc   CODE
    $b     0x704216fc   CODE
    $b     0x70421712   CODE
    $b     0x7042172e   CODE
    $b     0x7042174c   CODE
    $d     0x704217be   CODE
    $t     0x704217f4   CODE
    $b     0x70421852   CODE
    $b     0x70421856   CODE
    $b     0x7042185e   CODE
    $b     0x70421898   CODE
    $b     0x704218a2   CODE
    $b     0x704218b4   CODE
    $b     0x704218f0   CODE
    $b     0x70421974   CODE
    $b     0x7042198c   CODE
    $b     0x704219b6   CODE
    $b     0x704219dc   CODE
    $b     0x70421a0c   CODE
    $b     0x70421a22   CODE
    $b     0x70421a30   CODE
    $b     0x70421a3c   CODE
    $b     0x70421a48   CODE
    $b     0x70421a54   CODE
    $b     0x70421a5c   CODE
    $b     0x70421a66   CODE
    $b     0x70421a70   CODE
    $b     0x70421a7c   CODE
    $b     0x70421a82   CODE
    $b     0x70421a96   CODE
    $b     0x70421ac4   CODE
    $b     0x70421b1a   CODE
    $b     0x70421b2e   CODE
    $b     0x70421b5a   CODE
    $b     0x70421b6e   CODE
    $d     0x70421ba4   CODE
    $t     0x70421bd4   CODE
    $b     0x70421bf4   CODE
    $b     0x70421c16   CODE
    $b     0x70421c3e   CODE
    $b     0x70421c74   CODE
    $b     0x70421c80   CODE
    $b     0x70421c9c   CODE
    $b     0x70421cba   CODE
    $b     0x70421cca   CODE
    $b     0x70421cd4   CODE
    $b     0x70421ce8   CODE
    $b     0x70421d12   CODE
    $b     0x70421d1a   CODE
    $b     0x70421d32   CODE
    $b     0x70421d40   CODE
    $b     0x70421d7a   CODE
    $b     0x70421d94   CODE
    $b     0x70421d9c   CODE
    $b     0x70421dba   CODE
    $b     0x70421de2   CODE
    $d     0x70421de6   CODE
    $t     0x70421dee   CODE
    $b     0x70421e1e   CODE
    $b     0x70421e34   CODE
    $b     0x70421e48   CODE
    $b     0x70421e52   CODE
    $b     0x70421e68   CODE
    $b     0x70421e7e   CODE
    $b     0x70421e94   CODE
    $b     0x70421eaa   CODE
    $b     0x70421ec0   CODE
    $b     0x70421ed6   CODE
    $b     0x70421eec   CODE
    $b     0x70421f02   CODE
    $b     0x70421f16   CODE
    $b     0x70421f20   CODE
    $b     0x70421f36   CODE
    $b     0x70421f4a   CODE
    $b     0x70421f54   CODE
    $b     0x70421f6a   CODE
    $b     0x70421f80   CODE
    $b     0x70421f96   CODE
    $d     0x70421fa4   CODE
    $t     0x70421fc4   CODE
    $t     0x70422018   CODE
    $b     0x70422020   CODE
    $t     0x70422048   CODE
    $b     0x7042205e   CODE
    $b     0x70422078   CODE
    $b     0x70422088   CODE
    $b     0x704220c6   CODE
    $b     0x704220f6   CODE
    $b     0x70422100   CODE
    $b     0x70422112   CODE
    $b     0x7042211a   CODE
    $b     0x70422164   CODE
    $b     0x70422174   CODE
    $b     0x7042217e   CODE
    $b     0x70422194   CODE
    $b     0x7042219e   CODE
    $b     0x704221cc   CODE
    $b     0x704221da   CODE
    $b     0x704221e4   CODE
    $b     0x704221f2   CODE
    $b     0x70422200   CODE
    $b     0x7042220e   CODE
    $b     0x7042221c   CODE
    $b     0x7042222a   CODE
    $b     0x70422242   CODE
    $b     0x70422258   CODE
    $b     0x70422272   CODE
    $b     0x704222a2   CODE
    $b     0x704222a6   CODE
    $b     0x704222b0   CODE
    $b     0x704222b6   CODE
    $b     0x704222d8   CODE
    $b     0x704222e0   CODE
    $b     0x70422324   CODE
    $b     0x7042232e   CODE
    $b     0x70422334   CODE
    $b     0x70422348   CODE
    $b     0x70422358   CODE
    $b     0x70422362   CODE
    $b     0x70422372   CODE
    $b     0x7042238c   CODE
    $b     0x7042239e   CODE
    $b     0x704223a8   CODE
    $b     0x704223b8   CODE
    $d     0x704223c0   CODE
    $t     0x704224c8   CODE
    $b     0x704224d0   CODE
    $b     0x704224fc   CODE
    $b     0x70422520   CODE
    $b     0x70422536   CODE
    $b     0x70422544   CODE
    $b     0x7042256a   CODE
    $b     0x7042257a   CODE
    $b     0x704225ae   CODE
    $b     0x704225dc   CODE
    $b     0x70422608   CODE
    $b     0x7042262c   CODE
    $b     0x70422642   CODE
    $b     0x7042264e   CODE
    $b     0x70422672   CODE
    $b     0x70422682   CODE
    $b     0x70422692   CODE
    $b     0x704226a2   CODE
    $b     0x704226b2   CODE
    $b     0x704226c2   CODE
    $b     0x704226d2   CODE
    $b     0x704226e2   CODE
    $b     0x704226f2   CODE
    $b     0x70422702   CODE
    $b     0x7042272c   CODE
    $b     0x70422734   CODE
    $b     0x7042273c   CODE
    $b     0x70422748   CODE
    $b     0x7042277e   CODE
    $b     0x70422788   CODE
    $b     0x7042279a   CODE
    $b     0x704227aa   CODE
    $b     0x704227b6   CODE
    $b     0x704227ca   CODE
    $b     0x704227d2   CODE
    $b     0x704227da   CODE
    $b     0x704227de   CODE
    $b     0x704227e8   CODE
    $b     0x704227f2   CODE
    $b     0x7042280a   CODE
    $b     0x70422832   CODE
    $b     0x70422840   CODE
    $b     0x70422850   CODE
    $b     0x7042285e   CODE
    $b     0x70422866   CODE
    $b     0x70422884   CODE
    $b     0x704228a2   CODE
    $b     0x704228ac   CODE
    $b     0x704228ce   CODE
    $d     0x704228d8   CODE
    $t     0x7042299c   CODE
    $b     0x704229a4   CODE
    $b     0x704229ae   CODE
    $b     0x704229be   CODE
    $b     0x704229c8   CODE
    $b     0x704229ee   CODE
    $b     0x704229fc   CODE
    $b     0x70422a06   CODE
    $b     0x70422a14   CODE
    $b     0x70422a24   CODE
    $b     0x70422a3e   CODE
    $b     0x70422a4a   CODE
    $b     0x70422a6e   CODE
    $b     0x70422a94   CODE
    $b     0x70422a9e   CODE
    $b     0x70422ab2   CODE
    $b     0x70422b06   CODE
    $b     0x70422b14   CODE
    $b     0x70422b3a   CODE
    $b     0x70422b50   CODE
    $b     0x70422b86   CODE
    $b     0x70422b9c   CODE
    $d     0x70422ba0   CODE
    $t     0x70422c0a   CODE
    $d     0x70422cae   CODE
    $t     0x70422dbc   CODE
    $d     0x70422e08   CODE
    $t     0x70422f14   CODE
    $d     0x70422f58   CODE
    $t     0x70423064   CODE
    $b     0x70423096   CODE
    $b     0x7042309e   CODE
    $b     0x704230b4   CODE
    $b     0x704230be   CODE
    $b     0x704230ca   CODE
    $b     0x704230d8   CODE
    $d     0x704230dc   CODE
    $t     0x704230f6   CODE
    $d     0x70423126   CODE
    $t     0x70423228   CODE
    $d     0x7042330a   CODE
    $t     0x70423410   CODE
    $b     0x70423440   CODE
    $b     0x7042344c   CODE
    $b     0x70423466   CODE
    $b     0x70423470   CODE
    $b     0x70423478   CODE
    $b     0x70423480   CODE
    $b     0x70423490   CODE
    $b     0x704234b2   CODE
    $b     0x704234c6   CODE
    $b     0x704234dc   CODE
    $b     0x704234f2   CODE
    $b     0x704234fc   CODE
    $b     0x7042353a   CODE
    $b     0x70423542   CODE
    $b     0x70423552   CODE
    $b     0x7042355a   CODE
    $b     0x70423564   CODE
    $b     0x704235c8   CODE
    $b     0x704235f4   CODE
    $b     0x7042361e   CODE
    $b     0x70423630   CODE
    $b     0x7042363e   CODE
    $b     0x7042367e   CODE
    $b     0x704236a2   CODE
    $b     0x704236aa   CODE
    $b     0x704236e2   CODE
    $b     0x704236ea   CODE
    $b     0x704236fc   CODE
    $b     0x70423706   CODE
    $b     0x70423738   CODE
    $d     0x70423746   CODE
    $t     0x70423834   CODE
    $b     0x7042383a   CODE
    $b     0x70423850   CODE
    $b     0x7042385c   CODE
    $b     0x7042386c   CODE
    $b     0x70423882   CODE
    $b     0x70423892   CODE
    $b     0x704238a2   CODE
    $b     0x704238be   CODE
    $b     0x704238cc   CODE
    $b     0x704238d6   CODE
    $b     0x704238e4   CODE
    $b     0x704238f0   CODE
    $b     0x70423900   CODE
    $b     0x7042393a   CODE
    $b     0x70423942   CODE
    $b     0x70423960   CODE
    $b     0x70423988   CODE
    $b     0x704239a6   CODE
    $b     0x704239b0   CODE
    $b     0x704239c0   CODE
    $b     0x704239e0   CODE
    $b     0x70423a00   CODE
    $b     0x70423a1c   CODE
    $b     0x70423a24   CODE
    $b     0x70423a2e   CODE
    $b     0x70423a3a   CODE
    $b     0x70423a42   CODE
    $b     0x70423a52   CODE
    $b     0x70423a5e   CODE
    $b     0x70423a6e   CODE
    $b     0x70423a80   CODE
    $b     0x70423a8e   CODE
    $b     0x70423aa2   CODE
    $b     0x70423ab2   CODE
    $b     0x70423ac4   CODE
    $b     0x70423ad4   CODE
    $b     0x70423aea   CODE
    $b     0x70423af4   CODE
    $b     0x70423afe   CODE
    $b     0x70423b16   CODE
    $b     0x70423b26   CODE
    $b     0x70423b34   CODE
    $b     0x70423b58   CODE
    $d     0x70423b72   CODE
    $t     0x70423c38   CODE
    $t     0x70423c64   CODE
    $b     0x70423cf6   CODE
    $b     0x70423e18   CODE
    $b     0x70423eb8   CODE
    $b     0x70423ed6   CODE
    $b     0x70423ee8   CODE
    $b     0x70423f0a   CODE
    $b     0x70423f26   CODE
    $b     0x70423f40   CODE
    $b     0x70423f50   CODE
    $b     0x70423f6e   CODE
    $b     0x70423f86   CODE
    $b     0x70423fa6   CODE
    $b     0x70423fbe   CODE
    $t     0x70423fea   CODE
    $t     0x70424000   CODE
    $d     0x70424014   CODE
    $t     0x70424018   CODE
    $b     0x70424032   CODE
    $b     0x7042404e   CODE
    $b     0x70424054   CODE
    $b     0x70424076   CODE
    $d     0x7042407a   CODE
    $t     0x7042408a   CODE
    $b     0x704240cc   CODE
    $b     0x704240e4   CODE
    $b     0x704240f8   CODE
    $b     0x70424104   CODE
    $b     0x7042411c   CODE
    $b     0x70424196   CODE
    $b     0x7042419c   CODE
    $b     0x704241b6   CODE
    $b     0x704241bc   CODE
    $b     0x704241e2   CODE
    $b     0x70424202   CODE
    $b     0x70424222   CODE
    $b     0x70424226   CODE
    $b     0x7042423c   CODE
    $b     0x70424252   CODE
    $b     0x7042427c   CODE
    $b     0x70424290   CODE
    $b     0x70424304   CODE
    $d     0x70424308   CODE
    $t     0x70424312   CODE
    $b     0x70424316   CODE
    $d     0x7042431a   CODE
    $t     0x7042432e   CODE
    $b     0x70424352   CODE
    $b     0x7042438c   CODE
    $b     0x7042439c   CODE
    $b     0x704243c4   CODE
    $b     0x704243d6   CODE
    $d     0x704243fc   CODE
    $t     0x70424444   CODE
    $b     0x70424452   CODE
    $b     0x7042445c   CODE
    $b     0x7042448a   CODE
    $b     0x7042455e   CODE
    $b     0x70424572   CODE
    $b     0x70424578   CODE
    $b     0x70424586   CODE
    $b     0x704245b0   CODE
    $b     0x704245ea   CODE
    $b     0x704245f4   CODE
    $b     0x7042460c   CODE
    $b     0x7042461c   CODE
    $b     0x70424686   CODE
    $b     0x704246a8   CODE
    $b     0x704246cc   CODE
    $b     0x70424746   CODE
    $b     0x70424776   CODE
    $b     0x70424780   CODE
    $b     0x704247b6   CODE
    $b     0x704247bc   CODE
    $b     0x704247c8   CODE
    $b     0x704247ce   CODE
    $b     0x704247dc   CODE
    $b     0x704247e8   CODE
    $b     0x704247ee   CODE
    $b     0x704247fc   CODE
    $d     0x70424810   CODE
    $t     0x70424834   CODE
    $b     0x70424846   CODE
    $b     0x70424866   CODE
    $t     0x7042486c   CODE
    $b     0x70424872   CODE
    $b     0x70424882   CODE
    $b     0x70424898   CODE
    $t     0x704248b6   CODE
    $b     0x704248bc   CODE
    $b     0x704248cc   CODE
    $b     0x704248e2   CODE
    $t     0x70424900   CODE
    $d     0x70424926   CODE
    $t     0x7042492c   CODE
    $b     0x70424986   CODE
    $b     0x70424996   CODE
    $b     0x7042499e   CODE
    $b     0x704249ac   CODE
    $b     0x704249ba   CODE
    $b     0x704249c6   CODE
    $b     0x704249d6   CODE
    $b     0x704249de   CODE
    $b     0x704249e8   CODE
    $b     0x70424a2a   CODE
    $b     0x70424a32   CODE
    $b     0x70424a3c   CODE
    $b     0x70424a4e   CODE
    $b     0x70424a6a   CODE
    $b     0x70424a88   CODE
    $b     0x70424a9c   CODE
    $b     0x70424aae   CODE
    $b     0x70424ac0   CODE
    $b     0x70424b00   CODE
    $b     0x70424b26   CODE
    $b     0x70424b3a   CODE
    $b     0x70424b4a   CODE
    $b     0x70424b56   CODE
    $b     0x70424b9c   CODE
    $b     0x70424bba   CODE
    $b     0x70424bce   CODE
    $b     0x70424bde   CODE
    $b     0x70424bea   CODE
    $d     0x70424cfc   CODE
    $t     0x70424d80   CODE
    $b     0x70424d86   CODE
    $b     0x70424d96   CODE
    $b     0x70424da6   CODE
    $b     0x70424dd0   CODE
    $b     0x70424e10   CODE
    $b     0x70424e1a   CODE
    $b     0x70424e2e   CODE
    $b     0x70424e36   CODE
    $b     0x70424e40   CODE
    $b     0x70424e70   CODE
    $b     0x70424ebc   CODE
    $b     0x70424ec4   CODE
    $b     0x70424eca   CODE
    $b     0x70424ef0   CODE
    $b     0x70424f00   CODE
    $b     0x70424f72   CODE
    $b     0x70424f82   CODE
    $d     0x70424f86   CODE
    $t     0x70424f8e   CODE
    $b     0x70424fc4   CODE
    $b     0x70424fea   CODE
    $b     0x70424ff2   CODE
    $b     0x70424ffa   CODE
    $b     0x70425008   CODE
    $b     0x7042503e   CODE
    $b     0x70425046   CODE
    $b     0x7042504e   CODE
    $b     0x70425060   CODE
    $b     0x70425068   CODE
    $b     0x70425086   CODE
    $b     0x70425090   CODE
    $b     0x7042509a   CODE
    $b     0x704250ae   CODE
    $b     0x704250b8   CODE
    $b     0x704250c0   CODE
    $b     0x704250c8   CODE
    $b     0x704250d2   CODE
    $b     0x704250da   CODE
    $b     0x70425132   CODE
    $b     0x7042513e   CODE
    $b     0x70425154   CODE
    $b     0x7042515e   CODE
    $d     0x70425164   CODE
    $t     0x70425218   CODE
    $d     0x70425236   CODE
    $t     0x7042523c   CODE
    $t     0x7042524c   CODE
    $t     0x70425280   CODE
    $b     0x704252a0   CODE
    $b     0x704252ae   CODE
    $b     0x704252ce   CODE
    $b     0x704252d6   CODE
    $b     0x704252e4   CODE
    $b     0x70425304   CODE
    $b     0x70425320   CODE
    $b     0x70425334   CODE
    $b     0x7042533c   CODE
    $b     0x70425394   CODE
    $b     0x704253a8   CODE
    $b     0x704253b6   CODE
    $b     0x704253d2   CODE
    $b     0x704253e6   CODE
    $b     0x704253ee   CODE
    $d     0x70425452   CODE
    $t     0x70425464   CODE
    $b     0x70425498   CODE
    $b     0x704254a2   CODE
    $b     0x704254a8   CODE
    $b     0x704254b0   CODE
    $d     0x704254d0   CODE
    $a     0x704254dc   CODE
    $t     0x704254e4   CODE
    $b     0x70425504   CODE
    $d     0x70425510   CODE
    $t     0x70425518   CODE
    $b     0x7042552c   CODE
    $b     0x70425544   CODE
    $b     0x7042554a   CODE
    $t     0x7042555c   CODE
    $b     0x7042558e   CODE
    $b     0x7042559e   CODE
    $b     0x704255ba   CODE
    $b     0x704255cc   CODE
    $b     0x70425614   CODE
    $b     0x7042567c   CODE
    $b     0x70425690   CODE
    $b     0x704256b0   CODE
    $b     0x704256bc   CODE
    $b     0x7042573c   CODE
    $b     0x70425762   CODE
    $b     0x70425776   CODE
    $b     0x704257d8   CODE
    $b     0x70425802   CODE
    $b     0x70425812   CODE
    $b     0x70425826   CODE
    $b     0x70425838   CODE
    $b     0x70425870   CODE
    $b     0x70425896   CODE
    $b     0x704258a6   CODE
    $b     0x704258bc   CODE
    $b     0x704258ca   CODE
    $b     0x704258d8   CODE
    $b     0x704258ee   CODE
    $b     0x70425900   CODE
    $b     0x7042590e   CODE
    $b     0x7042593a   CODE
    $d     0x70425952   CODE
    $t     0x704259a4   CODE
    $b     0x704259c0   CODE
    $b     0x704259e0   CODE
    $b     0x70425a0a   CODE
    $b     0x70425a72   CODE
    $b     0x70425abe   CODE
    $d     0x70425b2a   CODE
    $t     0x70425b30   CODE
    $t     0x70425b58   CODE
    $b     0x70425b8e   CODE
    $t     0x70425bc0   CODE
    $b     0x70425bd6   CODE
    $b     0x70425bee   CODE
    $t     0x70425bf8   CODE
    $b     0x70425c02   CODE
    $b     0x70425c16   CODE
    $b     0x70425c24   CODE
    $b     0x70425c34   CODE
    $b     0x70425c4a   CODE
    $b     0x70425c5a   CODE
    $b     0x70425c80   CODE
    $d     0x70425c9c   CODE
    $t     0x70425cc0   CODE
    $b     0x70425cd8   CODE
    $b     0x70425cfc   CODE
    $b     0x70425d16   CODE
    $b     0x70425d46   CODE
    $b     0x70425d6c   CODE
    $b     0x70425d98   CODE
    $b     0x70425da0   CODE
    $b     0x70425dc0   CODE
    $b     0x70425dd6   CODE
    $d     0x70425dfc   CODE
    $t     0x70425e00   CODE
    $b     0x70425e26   CODE
    $b     0x70425e48   CODE
    $b     0x70425ec0   CODE
    $b     0x70425ef2   CODE
    $b     0x70425f0e   CODE
    $b     0x70425f1a   CODE
    $b     0x70425f74   CODE
    $d     0x70425f98   CODE
    $t     0x70425fa0   CODE
    $b     0x70425fd2   CODE
    $b     0x70425fd8   CODE
    $b     0x70425ffc   CODE
    $b     0x7042600e   CODE
    $b     0x70426032   CODE
    $b     0x70426044   CODE
    $b     0x704260c6   CODE
    $b     0x704260e0   CODE
    $b     0x704260fa   CODE
    $b     0x70426128   CODE
    $b     0x70426188   CODE
    $b     0x704261a4   CODE
    $b     0x704261be   CODE
    $b     0x704261f2   CODE
    $b     0x704262ae   CODE
    $b     0x70426306   CODE
    $d     0x70426318   CODE
    $t     0x70426330   CODE
    $t     0x70426340   CODE
    $a     0x70426344   CODE
    $t     0x7042635c   CODE
    $a     0x70426360   CODE
    $t     0x70426364   CODE
    $a     0x70426368   CODE
    $t     0x7042636c   CODE
    $a     0x70426370   CODE
    $t     0x70426374   CODE
    $a     0x70426378   CODE
    $t     0x7042637c   CODE
    $a     0x70426380   CODE
    $t     0x70426384   CODE
    $a     0x70426388   CODE
    $t     0x7042638c   CODE
    $a     0x70426390   CODE
    $t     0x70426394   CODE
    $a     0x70426398   CODE
    $t     0x7042639c   CODE
    $a     0x704263a0   CODE
    $t     0x704263a4   CODE
    $a     0x704263a8   CODE
    $t     0x704263ac   CODE
    $a     0x704263b0   CODE
    $t     0x704263b4   CODE
    $a     0x704263b8   CODE
    $t     0x704263bc   CODE
    $a     0x704263c0   CODE
    $t     0x704263c4   CODE
    $a     0x704263c8   CODE
    $t     0x704263cc   CODE
    $a     0x704263d0   CODE
    $t     0x704263d4   CODE
    $a     0x704263d8   CODE
    $t     0x704263dc   CODE
    $a     0x704263e0   CODE
    $t     0x704263e4   CODE
    $a     0x704263e8   CODE
    $t     0x704263ec   CODE
    $a     0x704263f0   CODE
    $t     0x704263f4   CODE
    $a     0x704263f8   CODE
    $t     0x704263fc   CODE
    $a     0x70426400   CODE
    $t     0x70426404   CODE
    $a     0x70426408   CODE
    $t     0x7042640c   CODE
    $a     0x70426410   CODE
    $t     0x70426414   CODE
    $a     0x70426418   CODE
    $t     0x7042641c   CODE
    $a     0x70426420   CODE
    $t     0x70426424   CODE
    $a     0x70426428   CODE
    $t     0x7042642c   CODE
    $a     0x70426430   CODE
    $t     0x70426434   CODE
    $a     0x70426438   CODE
    $t     0x70426458   CODE
    $a     0x7042645c   CODE
    $d     0x70426510   CODE
    $t     0x70426514   CODE
    $a     0x70426518   CODE
    $d     0x70426710   CODE
    $a     0x70426720   CODE
    $d     0x7042672c   CODE
    $a     0x70426730   CODE
    $d     0x7042673c   CODE
    $a     0x70426740   CODE
    $t     0x704267b4   CODE
    $a     0x704267b8   CODE
    $d     0x70426c4c   CODE
    $t     0x70426ce0   CODE
    $a     0x70426ce4   CODE
    $d     0x70426d68   CODE
    $t     0x70426d6c   CODE
    $a     0x70426d70   CODE
    $d     0x70426e14   CODE
    $t     0x70426e18   CODE
    $a     0x70426e1c   CODE
    $d     0x70426ea0   CODE
    $t     0x70426ea4   CODE
    $a     0x70426ea8   CODE
    $d     0x70426f2c   CODE
    $t     0x70426f30   CODE
    $a     0x70426f34   CODE
    $d     0x7042712c   CODE
    $t     0x70427140   CODE
    $a     0x70427144   CODE
    $d     0x704273b4   CODE
    $a     0x704273c0   CODE
    $t     0x704274d4   CODE
    $a     0x704274d8   CODE
    $a     0x704274f0   CODE
    $a     0x70427580   CODE
    $d     0x704275c0   CODE
    $a     0x704275c8   CODE
    $d     0x70427604   CODE
    $d     0x70427611   CODE
    $d     0x7042761b   CODE
    $d     0x70427625   CODE
    $d     0x7042762f   CODE
    $d     0x70427730   CODE
    $d     0x704294a0   CODE
    $d     0x70429538   CODE
    $d     0x70429544   CODE
    $d     0x704296a4   CODE
    $d     0x70429c00   DATA
    $d     0x70429c04   DATA
    $d     0x70429dd0   DATA
    $d     0x70429de0   DATA
    $d     0x70429de4   DATA
    $d     0x70429dec   BSS
    $d     0x70429df0   BSS
    $d     0x7042a634   BSS
    $d     0x7042a65e   BSS
    $d     0x7042a8f8   BSS
    $d     0x7042a908   BSS
    $d     0x7042a910   BSS

    Local Symbols

    Symbol Name                              Value     Ov Type        Size  Object(Section)

    ../../basic.s                            0x00000000   Number         0  basic.o ABSOLUTE
    ../../d2f.s                              0x00000000   Number         0  d2f.o ABSOLUTE
    ../../daddsub.s                          0x00000000   Number         0  daddsub.o ABSOLUTE
    ../../dcheck.s                           0x00000000   Number         0  dcheck.o ABSOLUTE
    ../../dcheck1.s                          0x00000000   Number         0  dcheck1.o ABSOLUTE
    ../../dcmpin.s                           0x00000000   Number         0  dcmpin.o ABSOLUTE
    ../../ddiv.s                             0x00000000   Number         0  ddiv.o ABSOLUTE
    ../../deqf.s                             0x00000000   Number         0  deqf.o ABSOLUTE
    ../../dfix.s                             0x00000000   Number         0  dfix.o ABSOLUTE
    ../../dgeqf.s                            0x00000000   Number         0  dgeqf.o ABSOLUTE
    ../../dleqf.s                            0x00000000   Number         0  dleqf.o ABSOLUTE
    ../../dmul.s                             0x00000000   Number         0  dmul_mull.o ABSOLUTE
    ../../dunder.s                           0x00000000   Number         0  dunder.o ABSOLUTE
    ../../fpconst.s                          0x00000000   Number         0  fpconst.o ABSOLUTE
    ../../fpinit.s                           0x00000000   Number         0  fpinit.o ABSOLUTE
    ../../funder.s                           0x00000000   Number         0  funder.o ABSOLUTE
    ../../retnan.s                           0x00000000   Number         0  retnan.o ABSOLUTE
    ../../trapv.s                            0x00000000   Number         0  trapv.o ABSOLUTE
    ../../unhosted.s                         0x00000000   Number         0  callvia.o ABSOLUTE
    ../../unhosted.s                         0x00000000   Number         0  switch8.o ABSOLUTE
    C:\D\ProjectRelated\ACT2.2.0\DEVENV\source\acl\conio\actutil.c 0x00000000   Number         0  actutil.o ABSOLUTE
    C:\D\ProjectRelated\ACT2.2.0\DEVENV\source\acl\conio\getchar.c 0x00000000   Number         0  getchar.o ABSOLUTE
    C:\D\ProjectRelated\ACT2.2.0\DEVENV\source\acl\device\SvcTicks.c 0x00000000   Number         0  SvcTicks.o ABSOLUTE
    C:\D\ProjectRelated\ACT2.2.0\DEVENV\source\acl\device\setitim.c 0x00000000   Number         0  setitim.o ABSOLUTE
    C:\D\ProjectRelated\ACT2.2.0\DEVENV\source\acl\string\Insrtch.c 0x00000000   Number         0  Insrtch.o ABSOLUTE
    C:\D\ProjectRelated\ACT2.2.0\DEVENV\source\acl\string\Int2str.c 0x00000000   Number         0  Int2str.o ABSOLUTE
    C:\D\ProjectRelated\ACT2.2.0\DEVENV\source\acl\string\Long2str.c 0x00000000   Number         0  Long2str.o ABSOLUTE
    C:\D\ProjectRelated\ACT2.2.0\DEVENV\source\acl\string\Str2int.c 0x00000000   Number         0  Str2int.o ABSOLUTE
    C:\D\ProjectRelated\ACT2.2.0\DEVENV\source\acl\string\ntocs.c 0x00000000   Number         0  ntocs.o ABSOLUTE
    C:\D\ProjectRelated\ACT2.2.0\DEVENV\source\beetle\beetle.c 0x00000000   Number         0  beetle.o ABSOLUTE
    C:\D\ProjectRelated\ACT2.2.0\DEVENV\source\lightning\device\device.c 0x00000000   Number         0  device.o ABSOLUTE
    C:\D\ProjectRelated\ACT2.2.0\DEVENV\source\lightning\power\power.c 0x00000000   Number         0  power.o ABSOLUTE
    C:\D\ProjectRelated\ACT2.2.0\DEVENV\source\printer\printer.c 0x00000000   Number         0  printer.o ABSOLUTE
    C:\D\ProjectRelated\ACT2.2.0\DEVENV\source\printer\printerIF.c 0x00000000   Number         0  printerIF.o ABSOLUTE
    C:\D\ProjectRelated\ACT2.2.0\DEVENV\source\xModem\xmodem.c 0x00000000   Number         0  xmodem.o ABSOLUTE
    C:\D\ProjectRelated\vmac\VMACSOURCE\source\lib\logsys\logsys.c 0x00000000   Number         0  logsys.o ABSOLUTE
    C:\Projetos\SDLC_SAMPLE\Vx510_SDLC\SOURCE\app\aplic.c 0x00000000   Number         0  aplic.o ABSOLUTE
    C:\Projetos\SDLC_SAMPLE\Vx510_SDLC\SOURCE\lib\app_sys.c 0x00000000   Number         0  app_sys.o ABSOLUTE
    C:\Projetos\SDLC_SAMPLE\Vx510_SDLC\SOURCE\porting\porting.c 0x00000000   Number         0  porting.o ABSOLUTE
    SYS.S                                    0x00000000   Number         0  SYS.o ABSOLUTE
    __main.s                                 0x00000000   Number         0  __main.ol ABSOLUTE
    _atodbl.c                                0x00000000   Number         0  _atodbl.opi ABSOLUTE
    _dbltoa.c                                0x00000000   Number         0  _dbltoa.opi ABSOLUTE
    _dbltopr.c                               0x00000000   Number         0  _dbltopr.opi ABSOLUTE
    _fltscan.c                               0x00000000   Number         0  _fltscan.opi ABSOLUTE
    _intscan.c                               0x00000000   Number         0  _intscan.opi ABSOLUTE
    _scanff.c                                0x00000000   Number         0  _scanff.opi ABSOLUTE
    _sgetc.c                                 0x00000000   Number         0  _sgetc.opi ABSOLUTE
    _sputc.c                                 0x00000000   Number         0  _sputc.opi ABSOLUTE
    _strtod.c                                0x00000000   Number         0  _strtod.opi ABSOLUTE
    _uctype.c                                0x00000000   Number         0  _uctype.opi ABSOLUTE
    armrt.s                                  0x00000000   Number         0  armrt.ol ABSOLUTE
    armstubs.s                               0x00000000   Number         0  armstubs.opi ABSOLUTE
    cs_int.c                                 0x00000000   Number         0  cs_int.oi ABSOLUTE
    fgetc.c                                  0x00000000   Number         0  fgetc.opi ABSOLUTE
    fillbuf.c                                0x00000000   Number         0  fillbuf.opi ABSOLUTE
    fscanf.c                                 0x00000000   Number         0  fscanf.opi ABSOLUTE
    getc.c                                   0x00000000   Number         0  getc.opi ABSOLUTE
    iodata.c                                 0x00000000   Number         0  iodata.opi ABSOLUTE
    rt_errno.c                               0x00000000   Number         0  rt_errno.ol ABSOLUTE
    scanf.c                                  0x00000000   Number         0  scanf.opi ABSOLUTE
    sprintfi.c                               0x00000000   Number         0  sprintfi.opi ABSOLUTE
    sscanf.c                                 0x00000000   Number         0  sscanf.opi ABSOLUTE
    svc_swi.c                                0x00000000   Number         0  svc_swi.ol ABSOLUTE
    sysrodat.c                               0x00000000   Number         0  sysrodat.oi ABSOLUTE
    ungetc.c                                 0x00000000   Number         0  ungetc.opi ABSOLUTE
    vrxcrt.c                                 0x00000000   Number         0  vrxcrt_t.o ABSOLUTE
    vrxhdr.s                                 0x00000000   Number         0  vrxcrt_t.o ABSOLUTE
    vsprintf.c                               0x00000000   Number         0  vsprintf.opi ABSOLUTE
    .0_vrx_pgmhdr                            0x70420040   Data          32  vrxcrt_t.o(.0_vrx_pgmhdr)
    .1_vrx_libtbl                            0x70420060   Data          16  vrxcrt_t.o(.1_vrx_libtbl)
    .2_vrx_libend                            0x70420070   Data           4  vrxcrt_t.o(.2_vrx_libend)
    .stub__sscanf                            0x70420078   ARM Code       4  armstubs.opi(.stub__sscanf)
    .text                                    0x7042007c   Thumb Code   216  vrxcrt_t.o(.text)
    .text                                    0x70420154   Thumb Code   616  aplic.o(.text)
    .text                                    0x704203bc   Thumb Code   964  app_sys.o(.text)
    .text                                    0x70420780   Thumb Code  2332  porting.o(.text)
    get_port_status                          0x7042104e   Thumb Code    10  porting.o(.text)
    set_serial_lines                         0x70421058   Thumb Code    10  porting.o(.text)
    .text                                    0x7042109c   Thumb Code    44  vsprintf.opi(.text)
    .text                                    0x704210c8   Thumb Code    48  sprintfi.opi(.text)
    .text                                    0x704210f8   ARM Code      32  armrt.ol(.text)
    .text                                    0x70421118   Thumb Code   656  printerIF.o(.text)
    .text                                    0x704213a8   Thumb Code  3184  beetle.o(.text)
    |L1.1084|                                0x704217e4   Data           0  beetle.o(.text)
    put_env                                  0x70421fc4   Thumb Code     8  beetle.o(.text)
    wherecur                                 0x70421fcc   Thumb Code    32  beetle.o(.text)
    wherewin                                 0x70421fec   Thumb Code    44  beetle.o(.text)
    .text                                    0x70422018   Thumb Code    46  getchar.o(.text)
    .text                                    0x70422048   Thumb Code  7152  xmodem.o(.text)
    |L1.924|                                 0x704223e4   Data           0  xmodem.o(.text)
    |L1.2204|                                0x704228e4   Data           0  xmodem.o(.text)
    |L1.2376|                                0x70422990   Data           0  xmodem.o(.text)
    |L1.3176|                                0x70422cb0   Data           0  xmodem.o(.text)
    |L1.3248|                                0x70422cf8   Data           0  xmodem.o(.text)
    |L1.3260|                                0x70422d04   Data           0  xmodem.o(.text)
    |L1.3268|                                0x70422d0c   Data           0  xmodem.o(.text)
    |L1.3280|                                0x70422d18   Data           0  xmodem.o(.text)
    |L1.3288|                                0x70422d20   Data           0  xmodem.o(.text)
    |L1.3304|                                0x70422d30   Data           0  xmodem.o(.text)
    |L1.3320|                                0x70422d40   Data           0  xmodem.o(.text)
    |L1.3328|                                0x70422d48   Data           0  xmodem.o(.text)
    |L1.3348|                                0x70422d5c   Data           0  xmodem.o(.text)
    |L1.3364|                                0x70422d6c   Data           0  xmodem.o(.text)
    |L1.3380|                                0x70422d7c   Data           0  xmodem.o(.text)
    |L1.3396|                                0x70422d8c   Data           0  xmodem.o(.text)
    |L1.3412|                                0x70422d9c   Data           0  xmodem.o(.text)
    |L1.3428|                                0x70422dac   Data           0  xmodem.o(.text)
    |L1.3520|                                0x70422e08   Data           0  xmodem.o(.text)
    |L1.3700|                                0x70422ebc   Data           0  xmodem.o(.text)
    |L1.3712|                                0x70422ec8   Data           0  xmodem.o(.text)
    |L1.4000|                                0x70422fe8   Data           0  xmodem.o(.text)
    write                                    0x70423b5e   Thumb Code     6  xmodem.o(.text)
    read                                     0x70423b64   Thumb Code     6  xmodem.o(.text)
    get_env                                  0x70423b6a   Thumb Code     8  xmodem.o(.text)
    .text                                    0x70423c38   Thumb Code    44  SvcTicks.o(.text)
    .text                                    0x70423c64   Thumb Code   902  _dbltopr.opi(.text)
    .text                                    0x70423fea   Thumb Code    20  _sputc.opi(.text)
    .text                                    0x70424000   Thumb Code    24  rt_errno.ol(.text)
    getEsqSeq                                0x70424018   Thumb Code    86  printer.o(.text)
    .text                                    0x70424018   Thumb Code  2076  printer.o(.text)
    initEsqSeq                               0x7042406e   Thumb Code    86  printer.o(.text)
    .text                                    0x70424834   Thumb Code    56  Insrtch.o(.text)
    .text                                    0x7042486c   Thumb Code    74  Int2str.o(.text)
    .text                                    0x704248b6   Thumb Code    74  Long2str.o(.text)
    .text                                    0x70424900   Thumb Code    44  setitim.o(.text)
    .text                                    0x7042492c   Thumb Code  2320  logsys.o(.text)
    write                                    0x70425228   Thumb Code     6  logsys.o(.text)
    get_env                                  0x7042522e   Thumb Code     8  logsys.o(.text)
    .text                                    0x7042523c   Thumb Code    16  power.o(.text)
    .text                                    0x7042524c   Thumb Code    52  device.o(.text)
    .text                                    0x70425280   Thumb Code   484  _dbltoa.opi(.text)
    .text                                    0x70425464   Thumb Code   120  actutil.o(.text)
    .text                                    0x704254e4   Thumb Code    52  sscanf.opi(.text)
    .text                                    0x70425518   Thumb Code    66  Str2int.o(.text)
    .text                                    0x7042555c   Thumb Code  1492  _scanff.opi(.text)
    .text                                    0x70425b30   Thumb Code    40  _sgetc.opi(.text)
    .text                                    0x70425b58   Thumb Code   104  cs_int.oi(.text)
    .text                                    0x70425bc0   Thumb Code    56  ntocs.o(.text)
    .text                                    0x70425bf8   Thumb Code   200  _strtod.opi(.text)
    .text                                    0x70425cc0   Thumb Code   320  _intscan.opi(.text)
    .text                                    0x70425e00   Thumb Code   416  _fltscan.opi(.text)
    by_tens                                  0x70425fa0   Thumb Code   174  _atodbl.opi(.text)
    .text                                    0x70425fa0   Thumb Code   912  _atodbl.opi(.text)
    .text                                    0x70426330   Thumb Code    16  callvia.o(.text)
    .text                                    0x70426344   ARM Code      24  switch8.o(.text)
    x$fpl$basic                              0x70426438   ARM Code      32  basic.o(x$fpl$basic)
    x$fpl$d2f                                0x7042645c   ARM Code     184  d2f.o(x$fpl$d2f)
    d2f_roundeven                            0x70426498   ARM Code       0  d2f.o(x$fpl$d2f)
    d2f_roundup                              0x704264a4   ARM Code       0  d2f.o(x$fpl$d2f)
    d2f_rounded                              0x704264b0   ARM Code       0  d2f.o(x$fpl$d2f)
    d2f_underflow                            0x704264c4   ARM Code       0  d2f.o(x$fpl$d2f)
    d2f_overflow                             0x704264cc   ARM Code       0  d2f.o(x$fpl$d2f)
    d2f_uncommon                             0x704264d8   ARM Code       0  d2f.o(x$fpl$d2f)
    d2f_naninf                               0x704264f4   ARM Code       0  d2f.o(x$fpl$d2f)
    x$fpl$dadd                               0x70426518   ARM Code     520  daddsub.o(x$fpl$dadd)
    _dadd1                                   0x70426540   ARM Code       0  daddsub.o(x$fpl$dadd)
    dadd_swapped                             0x7042655c   ARM Code       0  daddsub.o(x$fpl$dadd)
    dadd_nocarry                             0x70426594   ARM Code       0  daddsub.o(x$fpl$dadd)
    dadd_roundeven                           0x704265ac   ARM Code       0  daddsub.o(x$fpl$dadd)
    dadd_check_overflow_inx                  0x704265b8   ARM Code       0  daddsub.o(x$fpl$dadd)
    dadd_bigshift                            0x704265d8   ARM Code       0  daddsub.o(x$fpl$dadd)
    dadd_carry                               0x70426600   ARM Code       0  daddsub.o(x$fpl$dadd)
    dadd_check_overflow_exact                0x70426638   ARM Code       0  daddsub.o(x$fpl$dadd)
    dadd_uncommon                            0x70426658   ARM Code       0  daddsub.o(x$fpl$dadd)
    dadd_naninf                              0x704266a0   ARM Code       0  daddsub.o(x$fpl$dadd)
    dadd_twoinf                              0x704266f8   ARM Code       0  daddsub.o(x$fpl$dadd)
    x$fpl$dcheck                             0x70426720   ARM Code      16  dcheck.o(x$fpl$dcheck)
    x$fpl$dcheck1                            0x70426730   ARM Code      16  dcheck1.o(x$fpl$dcheck1)
    x$fpl$dcmpinfnan                         0x70426740   ARM Code     116  dcmpin.o(x$fpl$dcmpinfnan)
    dcmp_neg                                 0x70426780   ARM Code       0  dcmpin.o(x$fpl$dcmpinfnan)
    dcmp_clear_v                             0x70426790   ARM Code       0  dcmpin.o(x$fpl$dcmpinfnan)
    dcmp_found_NaN                           0x704267a4   ARM Code       0  dcmpin.o(x$fpl$dcmpinfnan)
    x$fpl$ddiv                               0x704267b8   ARM Code    1320  ddiv.o(x$fpl$ddiv)
    ddiv_entry                               0x704267bc   ARM Code       0  ddiv.o(x$fpl$ddiv)
    ddiv_exact                               0x7042685c   ARM Code       0  ddiv.o(x$fpl$ddiv)
    ddiv_rounded                             0x7042685c   ARM Code       0  ddiv.o(x$fpl$ddiv)
    ddiv_outflow                             0x7042689c   ARM Code       0  ddiv.o(x$fpl$ddiv)
    ddiv_zerodenorm                          0x704268d4   ARM Code       0  ddiv.o(x$fpl$ddiv)
    ddiv_azero                               0x704268e0   ARM Code       0  ddiv.o(x$fpl$ddiv)
    ddiv_divbyzero                           0x70426920   ARM Code       0  ddiv.o(x$fpl$ddiv)
    ddiv_naninf                              0x70426960   ARM Code       0  ddiv.o(x$fpl$ddiv)
    ddiv_xoverinf                            0x704269b8   ARM Code       0  ddiv.o(x$fpl$ddiv)
    ddiv_ivo_pop                             0x704269dc   ARM Code       0  ddiv.o(x$fpl$ddiv)
    ddiv_ivo                                 0x704269e0   ARM Code       0  ddiv.o(x$fpl$ddiv)
    ddiv_reciptbl                            0x70426c4c   Data           0  ddiv.o(x$fpl$ddiv)
    x$fpl$deqf                               0x70426ce4   ARM Code     136  deqf.o(x$fpl$deqf)
    _dcmpeq_check_NaNInf_pos                 0x70426d08   ARM Code       0  deqf.o(x$fpl$deqf)
    _dcmpeq_equality                         0x70426d20   ARM Code       0  deqf.o(x$fpl$deqf)
    _dcmpeq_negative                         0x70426d28   ARM Code       0  deqf.o(x$fpl$deqf)
    _dcmpeq_check_NaNInf_neg                 0x70426d48   ARM Code       0  deqf.o(x$fpl$deqf)
    dcmpeq_InfNaN                            0x70426d60   ARM Code       0  deqf.o(x$fpl$deqf)
    x$fpl$dfix                               0x70426d70   ARM Code     168  dfix.o(x$fpl$dfix)
    dfix_negative                            0x70426da8   ARM Code       0  dfix.o(x$fpl$dfix)
    dfix_ivo                                 0x70426ddc   ARM Code       0  dfix.o(x$fpl$dfix)
    x$fpl$dgeqf                              0x70426e1c   ARM Code     136  dgeqf.o(x$fpl$dgeqf)
    _dcmpge_check_NaNInf_pos                 0x70426e40   ARM Code       0  dgeqf.o(x$fpl$dgeqf)
    _dcmpge_equality                         0x70426e58   ARM Code       0  dgeqf.o(x$fpl$dgeqf)
    _dcmpge_negative                         0x70426e60   ARM Code       0  dgeqf.o(x$fpl$dgeqf)
    _dcmpge_check_NaNInf_neg                 0x70426e80   ARM Code       0  dgeqf.o(x$fpl$dgeqf)
    dcmpge_InfNaN                            0x70426e98   ARM Code       0  dgeqf.o(x$fpl$dgeqf)
    x$fpl$dleqf                              0x70426ea8   ARM Code     136  dleqf.o(x$fpl$dleqf)
    _dcmple_check_NaNInf_pos                 0x70426ecc   ARM Code       0  dleqf.o(x$fpl$dleqf)
    _dcmple_equality                         0x70426ee4   ARM Code       0  dleqf.o(x$fpl$dleqf)
    _dcmple_negative                         0x70426eec   ARM Code       0  dleqf.o(x$fpl$dleqf)
    _dcmple_check_NaNInf_neg                 0x70426f0c   ARM Code       0  dleqf.o(x$fpl$dleqf)
    dcmple_InfNaN                            0x70426f24   ARM Code       0  dleqf.o(x$fpl$dleqf)
    x$fpl$dmul                               0x70426f34   ARM Code     524  dmul_mull.o(x$fpl$dmul)
    dmul_exact                               0x70427008   ARM Code       0  dmul_mull.o(x$fpl$dmul)
    dmul_rounded                             0x70427008   ARM Code       0  dmul_mull.o(x$fpl$dmul)
    dmul_outflow                             0x70427048   ARM Code       0  dmul_mull.o(x$fpl$dmul)
    dmul_ret_inf                             0x70427078   ARM Code       0  dmul_mull.o(x$fpl$dmul)
    dmul_zerodenorm                          0x7042708c   ARM Code       0  dmul_mull.o(x$fpl$dmul)
    dmul_naninf                              0x704270d0   ARM Code       0  dmul_mull.o(x$fpl$dmul)
    dmul_ivo                                 0x70427120   ARM Code       0  dmul_mull.o(x$fpl$dmul)
    x$fpl$dsub                               0x70427144   ARM Code     636  daddsub.o(x$fpl$dsub)
    _dsub1                                   0x7042716c   ARM Code       0  daddsub.o(x$fpl$dsub)
    dsub_swapped                             0x7042718c   ARM Code       0  daddsub.o(x$fpl$dsub)
    dsub_noborrow                            0x704271c0   ARM Code       0  daddsub.o(x$fpl$dsub)
    dsub_bigshift                            0x704271f0   ARM Code       0  daddsub.o(x$fpl$dsub)
    dsub_borrow                              0x70427218   ARM Code       0  daddsub.o(x$fpl$dsub)
    dsub_renormalize                         0x70427258   ARM Code       0  daddsub.o(x$fpl$dsub)
    dsub_renormloop                          0x70427278   ARM Code       0  daddsub.o(x$fpl$dsub)
    dsub_hugeshift                           0x704272ac   ARM Code       0  daddsub.o(x$fpl$dsub)
    dsub_ex_one                              0x704272b8   ARM Code       0  daddsub.o(x$fpl$dsub)
    dsub_retzero                             0x704272cc   ARM Code       0  daddsub.o(x$fpl$dsub)
    dsub_denorm                              0x704272d4   ARM Code       0  daddsub.o(x$fpl$dsub)
    dsub_uncommon                            0x704272f8   ARM Code       0  daddsub.o(x$fpl$dsub)
    dsub_naninf                              0x70427344   ARM Code       0  daddsub.o(x$fpl$dsub)
    dsub_twoinf                              0x7042739c   ARM Code       0  daddsub.o(x$fpl$dsub)
    x$fpl$dunder                             0x704273c0   ARM Code     276  dunder.o(x$fpl$dunder)
    dunder_hiloword                          0x7042741c   ARM Code       0  dunder.o(x$fpl$dunder)
    dunder_hiword                            0x7042743c   ARM Code       0  dunder.o(x$fpl$dunder)
    dunder_roundbit                          0x70427460   ARM Code       0  dunder.o(x$fpl$dunder)
    dunder_stickyonly                        0x70427478   ARM Code       0  dunder.o(x$fpl$dunder)
    dunder_round                             0x70427484   ARM Code       0  dunder.o(x$fpl$dunder)
    dunder_roundup                           0x704274a4   ARM Code       0  dunder.o(x$fpl$dunder)
    dunder_rerounded                         0x704274ac   ARM Code       0  dunder.o(x$fpl$dunder)
    dunder_roundeven                         0x704274b0   ARM Code       0  dunder.o(x$fpl$dunder)
    x$fpl$fpinit                             0x704274d8   ARM Code      24  fpinit.o(x$fpl$fpinit)
    x$fpl$funder                             0x704274f0   ARM Code     144  funder.o(x$fpl$funder)
    _funder_rerounded                        0x70427550   ARM Code       0  funder.o(x$fpl$funder)
    _funder_exact                            0x70427554   ARM Code       0  funder.o(x$fpl$funder)
    _funder_lostmant                         0x70427558   ARM Code       0  funder.o(x$fpl$funder)
    _funder_returninx                        0x70427578   ARM Code       0  funder.o(x$fpl$funder)
    x$fpl$retnan                             0x70427580   ARM Code      72  retnan.o(x$fpl$retnan)
    return_fpnan                             0x704275ac   ARM Code       0  retnan.o(x$fpl$retnan)
    x$fpl$trapveneer                         0x704275c8   ARM Code      60  trapv.o(x$fpl$trapveneer)
    cmp_generic                              0x704275e4   ARM Code       0  trapv.o(x$fpl$trapveneer)
    cmp_boolean                              0x704275fc   ARM Code       0  trapv.o(x$fpl$trapveneer)
    .constdata$6                             0x70427604   Data           0  sysrodat.oi(.constdata)
    .constdata                               0x70427604   Data          13  sysrodat.oi(.constdata)
    .constdata$31                            0x70427611   Data           0  sysrodat.oi(.constdata)
    .constdata                               0x70427611   Data          10  sysrodat.oi(.constdata)
    .constdata$36                            0x7042761b   Data           0  sysrodat.oi(.constdata)
    .constdata                               0x7042761b   Data          10  sysrodat.oi(.constdata)
    .constdata$46                            0x70427625   Data           0  sysrodat.oi(.constdata)
    .constdata                               0x70427625   Data          10  sysrodat.oi(.constdata)
    .constdata$6                             0x7042762f   Data           0  _uctype.opi(.constdata)
    .constdata                               0x7042762f   Data         257  _uctype.opi(.constdata)
    .constdata$1                             0x70427730   Data           0  printer.o(.constdata)
    .constdata                               0x70427730   Data        7536  printer.o(.constdata)
    .constdata$1                             0x704294a0   Data           0  _dbltoa.opi(.constdata)
    ones                                     0x704294a0   Data          80  _dbltoa.opi(.constdata)
    .constdata                               0x704294a0   Data         152  _dbltoa.opi(.constdata)
    tens                                     0x704294f0   Data          72  _dbltoa.opi(.constdata)
    .constdata$1                             0x70429538   Data           0  _scanff.opi(.constdata)
    digits                                   0x70429538   Data          11  _scanff.opi(.constdata)
    .constdata                               0x70429538   Data          11  _scanff.opi(.constdata)
    .constdata$1                             0x70429544   Data           0  _atodbl.opi(.constdata)
    ones                                     0x70429544   Data          80  _atodbl.opi(.constdata)
    .constdata                               0x70429544   Data         352  _atodbl.opi(.constdata)
    tens_low                                 0x70429594   Data         120  _atodbl.opi(.constdata)
    tens_high                                0x7042960c   Data         152  _atodbl.opi(.constdata)
    c$$constdata                             0x704296a4   Data          24  fpconst.o(c$$constdata)
    .data$0                                  0x70429c00   Data           0  vrxcrt_t.o(.data)
    .data                                    0x70429c00   Data           4  vrxcrt_t.o(.data)
    .data$0                                  0x70429c04   Data           0  porting.o(.data)
    hConsole                                 0x70429c04   Data           4  porting.o(.data)
    .data                                    0x70429c04   Data         460  porting.o(.data)
    hPrint                                   0x70429c08   Data           4  porting.o(.data)
    hComModem                                0x70429c0c   Data           4  porting.o(.data)
    .data$0                                  0x70429dd0   Data           0  beetle.o(.data)
    .data                                    0x70429dd0   Data          16  beetle.o(.data)
    .data$0                                  0x70429de0   Data           0  xmodem.o(.data)
    O37XX_TERMINAL@is37xx_0                  0x70429de0   Data           4  xmodem.o(.data)
    .data                                    0x70429de0   Data           4  xmodem.o(.data)
    .data$0                                  0x70429de4   Data           0  logsys.o(.data)
    my_pipe_log                              0x70429de4   Data           4  logsys.o(.data)
    .data                                    0x70429de4   Data           8  logsys.o(.data)
    server_pipe                              0x70429de8   Data           4  logsys.o(.data)
    .bss$2                                   0x70429dec   Data           0  vrxcrt_t.o(.bss)
    .bss                                     0x70429dec   Data           4  vrxcrt_t.o(.bss)
    .bss$2                                   0x70429df0   Data           0  app_sys.o(.bss)
    contIsoBufP1                             0x70429df0   Data           4  app_sys.o(.bss)
    .bss                                     0x70429df0   Data        2116  app_sys.o(.bss)
    contIsoBufP2                             0x70429df4   Data           4  app_sys.o(.bss)
    isoBufP1                                 0x70429e34   Data        1024  app_sys.o(.bss)
    isoBufP2                                 0x7042a234   Data        1024  app_sys.o(.bss)
    .bss$2                                   0x7042a634   Data           0  porting.o(.bss)
    stsSDLC                                  0x7042a634   Data           4  porting.o(.bss)
    .bss                                     0x7042a634   Data          41  porting.o(.bss)
    tmoDiscSDLC                              0x7042a638   Data           4  porting.o(.bss)
    tmoRespSDLC                              0x7042a63c   Data           4  porting.o(.bss)
    parmSDLC                                 0x7042a640   Data          29  porting.o(.bss)
    .bss$2                                   0x7042a65e   Data           0  beetle.o(.bss)
    .bss                                     0x7042a65e   Data         665  beetle.o(.bss)
    cDone@BT_ReadFunc_0                      0x7042a660   Data           1  beetle.o(.bss)
    szFlag                                   0x7042a661   Data           1  beetle.o(.bss)
    ghCom1                                   0x7042a662   Data           2  beetle.o(.bss)
    gMask                                    0x7042a664   Data           2  beetle.o(.bss)
    hMag                                     0x7042a666   Data           2  beetle.o(.bss)
    szTestPkt                                0x7042a668   Data         255  beetle.o(.bss)
    szGetKeyPress                            0x7042a767   Data          26  beetle.o(.bss)
    scr_buf                                  0x7042a781   Data         374  beetle.o(.bss)
    .bss$2                                   0x7042a8f8   Data           0  xmodem.o(.bss)
    echoMode                                 0x7042a8f8   Data           4  xmodem.o(.bss)
    .bss                                     0x7042a8f8   Data          13  xmodem.o(.bss)
    modeCheck                                0x7042a8fc   Data           4  xmodem.o(.bss)
    .bss$2                                   0x7042a908   Data           0  printer.o(.bss)
    thermalPrinter                           0x7042a908   Data           2  printer.o(.bss)
    .bss                                     0x7042a908   Data           8  printer.o(.bss)
    printerEsqSeq                            0x7042a90c   Data           4  printer.o(.bss)
    .bss$2                                   0x7042a910   Data           0  logsys.o(.bss)
    .bss                                     0x7042a910   Data        1134  logsys.o(.bss)

    Global Symbols

    Symbol Name                              Value     Ov Type        Size  Object(Section)

    BuildAttributes$$THUMB_ISAv1$M$PE$A:L22$X:L11$S22$IEEE1$IW$~IW$~STKCKD$~SHL$OSPACE$ROPI$EBA4$EABIv2 0x00000000   Number         0  anon$$obj.o ABSOLUTE
    __main                                   0x00000000   Number         0  __main.ol ABSOLUTE
    _main                                    0x00000000   Number         0  __main.ol ABSOLUTE
    _main_arg                                0x00000000   Number         0  __main.ol ABSOLUTE
    __cpp_finalise                            - Undefined Weak Reference
    __cpp_initialise                          - Undefined Weak Reference
    __cxa_finalize                            - Undefined Weak Reference
    __fpl_infinity                            - Undefined Weak Reference
    Image$$DATA$$Length                      0x000001ec   Number         0  anon$$obj.o ABSOLUTE
    Image$$BSS$$ZI$$Length                   0x00000f94   Number         0  anon$$obj.o ABSOLUTE
    Image$$CODE$$Length                      0x0000967c   Number         0  anon$$obj.o ABSOLUTE
    _syslib_version                          0x70000060   ARM Code       0  SYS.o ABSOLUTE
    strlen                                   0x7000006c   ARM Code       0  SYS.o ABSOLUTE
    strchr                                   0x70000078   ARM Code       0  SYS.o ABSOLUTE
    strcat                                   0x70000084   ARM Code       0  SYS.o ABSOLUTE
    strcmp                                   0x70000090   ARM Code       0  SYS.o ABSOLUTE
    strcpy                                   0x7000009c   ARM Code       0  SYS.o ABSOLUTE
    strcspn                                  0x700000a8   ARM Code       0  SYS.o ABSOLUTE
    strerror                                 0x700000b4   ARM Code       0  SYS.o ABSOLUTE
    strncat                                  0x700000c0   ARM Code       0  SYS.o ABSOLUTE
    strncmp                                  0x700000cc   ARM Code       0  SYS.o ABSOLUTE
    strncpy                                  0x700000d8   ARM Code       0  SYS.o ABSOLUTE
    strpbrk                                  0x700000e4   ARM Code       0  SYS.o ABSOLUTE
    strrchr                                  0x700000f0   ARM Code       0  SYS.o ABSOLUTE
    strspn                                   0x700000fc   ARM Code       0  SYS.o ABSOLUTE
    strstr                                   0x70000108   ARM Code       0  SYS.o ABSOLUTE
    strtok                                   0x70000114   ARM Code       0  SYS.o ABSOLUTE
    memchr                                   0x70000120   ARM Code       0  SYS.o ABSOLUTE
    memcmp                                   0x7000012c   ARM Code       0  SYS.o ABSOLUTE
    memcpy                                   0x70000138   ARM Code       0  SYS.o ABSOLUTE
    memmove                                  0x70000144   ARM Code       0  SYS.o ABSOLUTE
    memset                                   0x70000150   ARM Code       0  SYS.o ABSOLUTE
    memccpy                                  0x7000015c   ARM Code       0  SYS.o ABSOLUTE
    tolower                                  0x70000168   ARM Code       0  SYS.o ABSOLUTE
    toupper                                  0x70000174   ARM Code       0  SYS.o ABSOLUTE
    strtol                                   0x70000180   ARM Code       0  SYS.o ABSOLUTE
    strtoul                                  0x7000018c   ARM Code       0  SYS.o ABSOLUTE
    atoi                                     0x70000198   ARM Code       0  SYS.o ABSOLUTE
    atol                                     0x700001a4   ARM Code       0  SYS.o ABSOLUTE
    abs                                      0x700001b0   ARM Code       0  SYS.o ABSOLUTE
    labs                                     0x700001bc   ARM Code       0  SYS.o ABSOLUTE
    div                                      0x700001c8   ARM Code       0  SYS.o ABSOLUTE
    ldiv                                     0x700001d4   ARM Code       0  SYS.o ABSOLUTE
    getenv                                   0x700001e0   ARM Code       0  SYS.o ABSOLUTE
    bsearch                                  0x700001ec   ARM Code       0  SYS.o ABSOLUTE
    qsort                                    0x700001f8   ARM Code       0  SYS.o ABSOLUTE
    rand                                     0x70000204   ARM Code       0  SYS.o ABSOLUTE
    srand                                    0x70000210   ARM Code       0  SYS.o ABSOLUTE
    exitold                                  0x7000021c   ARM Code       0  SYS.o ABSOLUTE
    malloc                                   0x70000228   ARM Code       0  SYS.o ABSOLUTE
    _heap_max                                0x70000234   ARM Code       0  SYS.o ABSOLUTE
    calloc                                   0x70000240   ARM Code       0  SYS.o ABSOLUTE
    realloc                                  0x7000024c   ARM Code       0  SYS.o ABSOLUTE
    free                                     0x70000258   ARM Code       0  SYS.o ABSOLUTE
    malloc_all                               0x70000264   ARM Code       0  SYS.o ABSOLUTE
    setjmp                                   0x70000270   ARM Code       0  SYS.o ABSOLUTE
    longjmp                                  0x7000027c   ARM Code       0  SYS.o ABSOLUTE
    remove                                   0x70000288   ARM Code       0  SYS.o ABSOLUTE
    rename                                   0x70000294   ARM Code       0  SYS.o ABSOLUTE
    _uprint                                  0x700002a0   ARM Code       0  SYS.o ABSOLUTE
    _sltoa                                   0x700002ac   ARM Code       0  SYS.o ABSOLUTE
    _ultoa                                   0x700002b8   ARM Code       0  SYS.o ABSOLUTE
    _strtol                                  0x700002d0   ARM Code       0  SYS.o ABSOLUTE
    _strtoul                                 0x700002dc   ARM Code       0  SYS.o ABSOLUTE
    _hexes                                   0x700002e8   ARM Code       0  SYS.o ABSOLUTE
    reallocBad                               0x700002f4   ARM Code       0  SYS.o ABSOLUTE
    _heap_current                            0x70000300   ARM Code       0  SYS.o ABSOLUTE
    SVC_LRC_CALC                             0x70000324   ARM Code       0  SYS.o ABSOLUTE
    SVC_CRC_CCITT_L                          0x70000330   ARM Code       0  SYS.o ABSOLUTE
    SVC_CRC_CCITT_M                          0x7000033c   ARM Code       0  SYS.o ABSOLUTE
    SVC_CRC_CRC16_L                          0x70000348   ARM Code       0  SYS.o ABSOLUTE
    SVC_CRC_CRC16_M                          0x70000354   ARM Code       0  SYS.o ABSOLUTE
    SVC_CRC_CRC32_L                          0x70000360   ARM Code       0  SYS.o ABSOLUTE
    SVC_CRC_CALC                             0x7000036c   ARM Code       0  SYS.o ABSOLUTE
    SVC_CRC_CALC_L                           0x70000378   ARM Code       0  SYS.o ABSOLUTE
    days2date                                0x70000384   ARM Code       0  SYS.o ABSOLUTE
    date2days                                0x70000390   ARM Code       0  SYS.o ABSOLUTE
    secs2time                                0x7000039c   ARM Code       0  SYS.o ABSOLUTE
    time2secs                                0x700003a8   ARM Code       0  SYS.o ABSOLUTE
    seconds2datetime                         0x700003b4   ARM Code       0  SYS.o ABSOLUTE
    datetime2seconds                         0x700003c0   ARM Code       0  SYS.o ABSOLUTE
    SVC_VALID_DATE                           0x700003cc   ARM Code       0  SYS.o ABSOLUTE
    SVC_DSP_2_HEX                            0x700003d8   ARM Code       0  SYS.o ABSOLUTE
    SVC_HEX_2_DSP                            0x700003e4   ARM Code       0  SYS.o ABSOLUTE
    SVC_MEMSUM                               0x700003f0   ARM Code       0  SYS.o ABSOLUTE
    SVC_MOD_CK                               0x700003fc   ARM Code       0  SYS.o ABSOLUTE
    SVC_PACK4                                0x70000408   ARM Code       0  SYS.o ABSOLUTE
    SVC_UNPK4                                0x70000414   ARM Code       0  SYS.o ABSOLUTE
    SVC_AZ2CS                                0x70000420   ARM Code       0  SYS.o ABSOLUTE
    SVC_CS2AZ                                0x7000042c   ARM Code       0  SYS.o ABSOLUTE
    strnlwr                                  0x70000438   ARM Code       0  SYS.o ABSOLUTE
    strnupr                                  0x70000444   ARM Code       0  SYS.o ABSOLUTE
    ultoa                                    0x70000450   ARM Code       0  SYS.o ABSOLUTE
    ltoa                                     0x7000045c   ARM Code       0  SYS.o ABSOLUTE
    file_copy                                0x70000468   ARM Code       0  SYS.o ABSOLUTE
    alpha_shift                              0x70000474   ARM Code       0  SYS.o ABSOLUTE
    download                                 0x70000480   ARM Code       0  SYS.o ABSOLUTE
    download_ext                             0x7000048c   ARM Code       0  SYS.o ABSOLUTE
    dlTypeOK                                 0x70000498   ARM Code       0  SYS.o ABSOLUTE
    PutChar                                  0x700004a4   ARM Code       0  SYS.o ABSOLUTE
    SendPacket                               0x700004b0   ARM Code       0  SYS.o ABSOLUTE
    CollectPacket                            0x700004bc   ARM Code       0  SYS.o ABSOLUTE
    SVC_FILESYS_ZAP                          0x700004c8   ARM Code       0  SYS.o ABSOLUTE
    SVC_ZONTALK                              0x700004d4   ARM Code       0  SYS.o ABSOLUTE
    SVC_ZONTALK_EXT                          0x700004e0   ARM Code       0  SYS.o ABSOLUTE
    get_GIDSmask                             0x700004ec   ARM Code       0  SYS.o ABSOLUTE
    set_GIDSmask                             0x700004f8   ARM Code       0  SYS.o ABSOLUTE
    alpha_multi_shift                        0x70000504   ARM Code       0  SYS.o ABSOLUTE
    __rt_memcpy                              0x7000057c   ARM Code       0  SYS.o ABSOLUTE
    __rt_memcpy_w                            0x70000588   ARM Code       0  SYS.o ABSOLUTE
    __rt_memmove                             0x70000594   ARM Code       0  SYS.o ABSOLUTE
    __rt_memmove_w                           0x700005a0   ARM Code       0  SYS.o ABSOLUTE
    __rt_memset                              0x700005ac   ARM Code       0  SYS.o ABSOLUTE
    __rt_memclr                              0x700005b8   ARM Code       0  SYS.o ABSOLUTE
    __rt_memclr_w                            0x700005c4   ARM Code       0  SYS.o ABSOLUTE
    __rt_div0                                0x700005d0   ARM Code       0  SYS.o ABSOLUTE
    __rt_sdiv                                0x700005dc   ARM Code       0  SYS.o ABSOLUTE
    __rt_udiv                                0x700005e8   ARM Code       0  SYS.o ABSOLUTE
    __rt_sdiv10                              0x700005f4   ARM Code       0  SYS.o ABSOLUTE
    __rt_udiv10                              0x70000600   ARM Code       0  SYS.o ABSOLUTE
    __rt_uread4                              0x7000060c   ARM Code       0  SYS.o ABSOLUTE
    __rt_uwrite4                             0x70000618   ARM Code       0  SYS.o ABSOLUTE
    play_RTTTL                               0x7000066c   ARM Code       0  SYS.o ABSOLUTE
    _nosys                                   0x700009b4   ARM Code       0  SYS.o ABSOLUTE
    errno                                    0x7041fff0   Number         0  armrt.ol ABSOLUTE
    fp_status                                0x7041fffc   Number         0  armrt.ol ABSOLUTE
    Image$$CODE$$Base                        0x70420040   Number         0  anon$$obj.o ABSOLUTE
    _verix_header                            0x70420040   Data           0  vrxcrt_t.o(.0_vrx_pgmhdr)
    _version                                 0x70420042   Data           0  vrxcrt_t.o(.0_vrx_pgmhdr)
    _stacksize                               0x70420050   Data           0  vrxcrt_t.o(.0_vrx_pgmhdr)
    _heapsize                                0x70420058   Data           0  vrxcrt_t.o(.0_vrx_pgmhdr)
    Inline Thumb to ARM Veneer to _sscanf    0x70420074   Thumb Code     0  armstubs.opi(.stub__sscanf)
    _sscanf                                  0x70420078   ARM Code       0  armstubs.opi(.stub__sscanf)
    _vrxgo                                   0x7042007c   Thumb Code   174  vrxcrt_t.o(.text)
    mostraMenu                               0x70420154   Thumb Code    28  aplic.o(.text)
    menu                                     0x70420170   Thumb Code    94  aplic.o(.text)
    initEnvironment                          0x704201ce   Thumb Code   100  aplic.o(.text)
    main                                     0x70420232   Thumb Code   370  aplic.o(.text)
    ResetDispComm                            0x704203bc   Thumb Code     8  app_sys.o(.text)
    discaPos                                 0x704203c4   Thumb Code    16  app_sys.o(.text)
    makeISO                                  0x704203d4   Thumb Code    26  app_sys.o(.text)
    sendISO                                  0x704203ee   Thumb Code    32  app_sys.o(.text)
    recvISO                                  0x7042040e   Thumb Code    38  app_sys.o(.text)
    procP2                                   0x70420434   Thumb Code    24  app_sys.o(.text)
    loadParm                                 0x7042044c   Thumb Code    56  app_sys.o(.text)
    printfPOS                                0x70420484   Thumb Code    42  app_sys.o(.text)
    isConnected                              0x704204ae   Thumb Code    30  app_sys.o(.text)
    getStatCom                               0x704204cc   Thumb Code   352  app_sys.o(.text)
    transaciona                              0x7042062c   Thumb Code   166  app_sys.o(.text)
    resetConsole                             0x70420780   Thumb Code    38  porting.o(.text)
    debugH                                   0x704207a6   Thumb Code    72  porting.o(.text)
    resetPrint                               0x704207ee   Thumb Code   112  porting.o(.text)
    beepPOS                                  0x7042085e   Thumb Code    26  porting.o(.text)
    get_parm                                 0x70420878   Thumb Code    38  porting.o(.text)
    waitTime                                 0x7042089e   Thumb Code    12  porting.o(.text)
    clearDisplay                             0x704208aa   Thumb Code    10  porting.o(.text)
    writeDisp                                0x704208b4   Thumb Code    22  porting.o(.text)
    readKeyPos                               0x704208ca   Thumb Code    34  porting.o(.text)
    get_milli_sec                            0x704208ec   Thumb Code    20  porting.o(.text)
    flushMDM                                 0x70420900   Thumb Code    18  porting.o(.text)
    ATCmdSDLC                                0x70420912   Thumb Code   444  porting.o(.text)
    getStatSDLC                              0x70420ace   Thumb Code     6  porting.o(.text)
    SaveConfSDLC                             0x70420ad4   Thumb Code    62  porting.o(.text)
    resetSDLC                                0x70420b12   Thumb Code   398  porting.o(.text)
    discaSDLC                                0x70420ca0   Thumb Code   142  porting.o(.text)
    chk_sdlc                                 0x70420d2e   Thumb Code   270  porting.o(.text)
    sndSDLC                                  0x70420e3c   Thumb Code   100  porting.o(.text)
    recvSDLC                                 0x70420ea0   Thumb Code   430  porting.o(.text)
    vsprintf                                 0x7042109c   Thumb Code    36  vsprintf.opi(.text)
    _sprintf                                 0x704210c8   Thumb Code    44  sprintfi.opi(.text)
    __rt_fp_status_addr                      0x704210f8   ARM Code       0  armrt.ol(.text)
    __rt_raise                               0x70421100   ARM Code       0  armrt.ol(.text)
    __gccmain                                0x7042110c   ARM Code       0  armrt.ol(.text)
    p250_close                               0x70421118   Thumb Code     8  printerIF.o(.text)
    p250_id                                  0x70421120   Thumb Code    10  printerIF.o(.text)
    p250_init                                0x7042112a   Thumb Code    10  printerIF.o(.text)
    p250_status                              0x70421134   Thumb Code     8  printerIF.o(.text)
    p250_print                               0x7042113c   Thumb Code    18  printerIF.o(.text)
    p250_mode                                0x7042114e   Thumb Code     8  printerIF.o(.text)
    p300_close                               0x70421156   Thumb Code     8  printerIF.o(.text)
    p300_id                                  0x7042115e   Thumb Code    10  printerIF.o(.text)
    p300_init                                0x70421168   Thumb Code    10  printerIF.o(.text)
    p300_status                              0x70421172   Thumb Code     8  printerIF.o(.text)
    p300_print                               0x7042117a   Thumb Code     8  printerIF.o(.text)
    p300_mode                                0x70421182   Thumb Code     8  printerIF.o(.text)
    p350_close                               0x7042118a   Thumb Code     8  printerIF.o(.text)
    p350_id                                  0x70421192   Thumb Code    10  printerIF.o(.text)
    p350_init                                0x7042119c   Thumb Code    10  printerIF.o(.text)
    p350_status                              0x704211a6   Thumb Code     8  printerIF.o(.text)
    p350_print                               0x704211ae   Thumb Code     8  printerIF.o(.text)
    p350_mode                                0x704211b6   Thumb Code     8  printerIF.o(.text)
    p355_close                               0x704211be   Thumb Code     8  printerIF.o(.text)
    p355_id                                  0x704211c6   Thumb Code    10  printerIF.o(.text)
    p355_init                                0x704211d0   Thumb Code    10  printerIF.o(.text)
    p355_status                              0x704211da   Thumb Code     8  printerIF.o(.text)
    p355_print                               0x704211e2   Thumb Code     8  printerIF.o(.text)
    p355_mode                                0x704211ea   Thumb Code     8  printerIF.o(.text)
    p950_close                               0x704211f2   Thumb Code     8  printerIF.o(.text)
    p950_id                                  0x704211fa   Thumb Code    10  printerIF.o(.text)
    p950_init                                0x70421204   Thumb Code    10  printerIF.o(.text)
    p950_status                              0x7042120e   Thumb Code     8  printerIF.o(.text)
    p950_print                               0x70421216   Thumb Code     8  printerIF.o(.text)
    p950_mode                                0x7042121e   Thumb Code     8  printerIF.o(.text)
    p950_select_font                         0x70421226   Thumb Code     8  printerIF.o(.text)
    p950_dnld_font_file                      0x7042122e   Thumb Code     8  printerIF.o(.text)
    p950_sel_tbl_dnld_char                   0x70421236   Thumb Code    16  printerIF.o(.text)
    p950_dnld_char                           0x70421246   Thumb Code     8  printerIF.o(.text)
    p3300_close                              0x7042124e   Thumb Code     8  printerIF.o(.text)
    p3300_id                                 0x70421256   Thumb Code    10  printerIF.o(.text)
    p3300_init                               0x70421260   Thumb Code    10  printerIF.o(.text)
    p3300_status                             0x7042126a   Thumb Code     8  printerIF.o(.text)
    p3300_print                              0x70421272   Thumb Code     8  printerIF.o(.text)
    p3300_mode                               0x7042127a   Thumb Code     8  printerIF.o(.text)
    p3300_select_font                        0x70421282   Thumb Code     8  printerIF.o(.text)
    p3300_dnld_font_file                     0x7042128a   Thumb Code     8  printerIF.o(.text)
    p3300_sel_tbl_dnld_char                  0x70421292   Thumb Code    16  printerIF.o(.text)
    p3300_dnld_char                          0x704212a2   Thumb Code     8  printerIF.o(.text)
    p3300_dnld_graphic_file                  0x704212aa   Thumb Code     8  printerIF.o(.text)
    p3300_print_graphic                      0x704212b2   Thumb Code     8  printerIF.o(.text)
    p3600_close                              0x704212ba   Thumb Code     8  printerIF.o(.text)
    p3600_id                                 0x704212c2   Thumb Code    10  printerIF.o(.text)
    p3600_init                               0x704212cc   Thumb Code    10  printerIF.o(.text)
    p3600_status                             0x704212d6   Thumb Code     8  printerIF.o(.text)
    p3600_print                              0x704212de   Thumb Code     8  printerIF.o(.text)
    p3600_mode                               0x704212e6   Thumb Code     8  printerIF.o(.text)
    p3600_select_font                        0x704212ee   Thumb Code     8  printerIF.o(.text)
    p3600_dnld_font_file                     0x704212f6   Thumb Code     8  printerIF.o(.text)
    p3600_sel_tbl_dnld_char                  0x704212fe   Thumb Code    16  printerIF.o(.text)
    p3600_dnld_char                          0x7042130e   Thumb Code     8  printerIF.o(.text)
    p3600_dnld_graphic_file                  0x70421316   Thumb Code     8  printerIF.o(.text)
    p3600_print_graphic                      0x7042131e   Thumb Code     8  printerIF.o(.text)
    p3700_close                              0x70421326   Thumb Code    26  printerIF.o(.text)
    p3700_id                                 0x70421340   Thumb Code    10  printerIF.o(.text)
    p3700_init                               0x7042134a   Thumb Code    10  printerIF.o(.text)
    p3700_status                             0x70421354   Thumb Code     8  printerIF.o(.text)
    p3700_print                              0x7042135c   Thumb Code     8  printerIF.o(.text)
    p3700_mode                               0x70421364   Thumb Code     8  printerIF.o(.text)
    p3700_select_font                        0x7042136c   Thumb Code     8  printerIF.o(.text)
    p3700_dnld_font_file                     0x70421374   Thumb Code     8  printerIF.o(.text)
    p3700_sel_tbl_dnld_char                  0x7042137c   Thumb Code    16  printerIF.o(.text)
    p3700_dnld_char                          0x7042138c   Thumb Code     8  printerIF.o(.text)
    p3700_dnld_graphic_file                  0x70421394   Thumb Code     8  printerIF.o(.text)
    p3700_print_graphic                      0x7042139c   Thumb Code     8  printerIF.o(.text)
    BT_GetEnvValue                           0x704213a8   Thumb Code    22  beetle.o(.text)
    BT_FileSize                              0x704213be   Thumb Code    30  beetle.o(.text)
    BT_Write                                 0x704213dc   Thumb Code   378  beetle.o(.text)
    BT_ScreenHandle                          0x70421556   Thumb Code    18  beetle.o(.text)
    BT_SetEnvValue                           0x70421568   Thumb Code    32  beetle.o(.text)
    BT_SetClock                              0x70421588   Thumb Code    32  beetle.o(.text)
    BT_FileRename                            0x704215a8   Thumb Code    24  beetle.o(.text)
    BT_ProcessEvents                         0x704215c0   Thumb Code   440  beetle.o(.text)
    BT_ReadCom                               0x70421778   Thumb Code   202  beetle.o(.text)
    BT_Read                                  0x70421842   Thumb Code    36  beetle.o(.text)
    BT_Stop                                  0x70421866   Thumb Code    20  beetle.o(.text)
    BT_Start                                 0x7042187a   Thumb Code   256  beetle.o(.text)
    BT_BWrite                                0x7042197a   Thumb Code   134  beetle.o(.text)
    BT_GetKeyPress                           0x70421a00   Thumb Code   160  beetle.o(.text)
    BT_CheckCOMEvent                         0x70421aa0   Thumb Code    56  beetle.o(.text)
    BT_WriteScreen                           0x70421ad8   Thumb Code   252  beetle.o(.text)
    BT_Clrscr                                0x70421bd4   Thumb Code    86  beetle.o(.text)
    BT_WriteFunc                             0x70421c2a   Thumb Code    34  beetle.o(.text)
    BT_WriteAt                               0x70421c4c   Thumb Code     6  beetle.o(.text)
    BT_Clreol                                0x70421c52   Thumb Code    86  beetle.o(.text)
    BT_ReadFunc                              0x70421ca8   Thumb Code    84  beetle.o(.text)
    BT_Open                                  0x70421cfc   Thumb Code    96  beetle.o(.text)
    BT_Close                                 0x70421d5c   Thumb Code    52  beetle.o(.text)
    BT_kbd_pending_count                     0x70421d90   Thumb Code    28  beetle.o(.text)
    BT_Get_Dock_Status                       0x70421dac   Thumb Code    20  beetle.o(.text)
    BT_Get_Battery_Value                     0x70421dc0   Thumb Code    22  beetle.o(.text)
    DisableBTEvent                           0x70421dd6   Thumb Code    64  beetle.o(.text)
    BT_ProjectName                           0x70421e16   Thumb Code    22  beetle.o(.text)
    BT_ComponentName                         0x70421e2c   Thumb Code    22  beetle.o(.text)
    BT_Round                                 0x70421e42   Thumb Code    30  beetle.o(.text)
    BT_LogTestCases                          0x70421e60   Thumb Code    22  beetle.o(.text)
    BT_LogTestResults                        0x70421e76   Thumb Code    22  beetle.o(.text)
    BT_StartTestCase                         0x70421e8c   Thumb Code    22  beetle.o(.text)
    BTC_Id                                   0x70421ea2   Thumb Code    22  beetle.o(.text)
    BTC_Type                                 0x70421eb8   Thumb Code    22  beetle.o(.text)
    BTC_Description                          0x70421ece   Thumb Code    22  beetle.o(.text)
    BTC_ExpectedBehavior                     0x70421ee4   Thumb Code    22  beetle.o(.text)
    BTC_ObservedBehavior                     0x70421efa   Thumb Code    22  beetle.o(.text)
    BTC_Result                               0x70421f10   Thumb Code    30  beetle.o(.text)
    BTC_DCSId                                0x70421f2e   Thumb Code    22  beetle.o(.text)
    BTC_DefectSeverity                       0x70421f44   Thumb Code    30  beetle.o(.text)
    BTC_Log                                  0x70421f62   Thumb Code    22  beetle.o(.text)
    BTC_Notes                                0x70421f78   Thumb Code    22  beetle.o(.text)
    BT_EndTestCase                           0x70421f8e   Thumb Code    54  beetle.o(.text)
    get_char                                 0x70422018   Thumb Code    46  getchar.o(.text)
    xhayes_response                          0x70422048   Thumb Code   246  xmodem.o(.text)
    SysMdlNum                                0x7042213e   Thumb Code    72  xmodem.o(.text)
    is670Vx                                  0x70422186   Thumb Code    40  xmodem.o(.text)
    is37xx                                   0x704221ae   Thumb Code   158  xmodem.o(.text)
    MDM_STATUS                               0x7042224c   Thumb Code    10  xmodem.o(.text)
    xmdm_output_pending                      0x70422256   Thumb Code    18  xmodem.o(.text)
    xmdm_flush                               0x70422268   Thumb Code    42  xmodem.o(.text)
    xhayes_send_cmd                          0x70422292   Thumb Code   238  xmodem.o(.text)
    xmdm_ATCmd                               0x70422380   Thumb Code   328  xmodem.o(.text)
    InitAsync_Vx670                          0x704224c8   Thumb Code   208  xmodem.o(.text)
    xmdm_set_protocol                        0x70422598   Thumb Code    60  xmodem.o(.text)
    InitSync_Vx670                           0x704225d4   Thumb Code   330  xmodem.o(.text)
    init_sdlc                                0x7042271e   Thumb Code   252  xmodem.o(.text)
    xmdm_open                                0x7042281a   Thumb Code   694  xmodem.o(.text)
    xmdm_clear                               0x70422ad0   Thumb Code    66  xmodem.o(.text)
    xmdm_input_pending                       0x70422b12   Thumb Code    30  xmodem.o(.text)
    xmdm_close                               0x70422b30   Thumb Code   100  xmodem.o(.text)
    siliconlabsmodem_display                 0x70422b94   Thumb Code  1298  xmodem.o(.text)
    xhayes_display                           0x704230a6   Thumb Code   942  xmodem.o(.text)
    xmdm_dial_status                         0x70423454   Thumb Code    78  xmodem.o(.text)
    xmdm_get_line_dial                       0x704234a2   Thumb Code    86  xmodem.o(.text)
    xmdm_check_status                        0x704234f8   Thumb Code    32  xmodem.o(.text)
    xmdm_receive_data                        0x70423518   Thumb Code   166  xmodem.o(.text)
    xmdm_hangup                              0x704235be   Thumb Code   198  xmodem.o(.text)
    xmdm_init                                0x70423684   Thumb Code    36  xmodem.o(.text)
    xmdm_failed_output_pending               0x704236a8   Thumb Code    30  xmodem.o(.text)
    xmdm_send_data                           0x704236c6   Thumb Code   366  xmodem.o(.text)
    xmdm_set_attrib                          0x70423834   Thumb Code    34  xmodem.o(.text)
    xmdm_checkline                           0x70423856   Thumb Code   200  xmodem.o(.text)
    inOpenModem                              0x7042391e   Thumb Code   170  xmodem.o(.text)
    vdCheckDataMode                          0x704239c8   Thumb Code     6  xmodem.o(.text)
    vdSetEchoMode                            0x704239ce   Thumb Code     6  xmodem.o(.text)
    inInitModem                              0x704239d4   Thumb Code   296  xmodem.o(.text)
    xhayes_status                            0x70423afc   Thumb Code     8  xmodem.o(.text)
    xhayes_control                           0x70423b04   Thumb Code    54  xmodem.o(.text)
    xhayes_flush                             0x70423b3a   Thumb Code    36  xmodem.o(.text)
    SVC_TICKS                                0x70423c38   Thumb Code    44  SvcTicks.o(.text)
    _dbltoprtf                               0x70423c64   Thumb Code   902  _dbltopr.opi(.text)
    _sputchar                                0x70423fea   Thumb Code    20  _sputc.opi(.text)
    __rt_errno_addr                          0x70424000   Thumb Code    20  rt_errno.ol(.text)
    PRN_id                                   0x704240c4   Thumb Code   174  printer.o(.text)
    ACT_CheckOSVersion                       0x70424172   Thumb Code    98  printer.o(.text)
    is3720                                   0x704241d4   Thumb Code    64  printer.o(.text)
    PRN_init                                 0x70424214   Thumb Code   130  printer.o(.text)
    PRN_close                                0x70424296   Thumb Code    54  printer.o(.text)
    PRN_mode                                 0x704242cc   Thumb Code   230  printer.o(.text)
    PRN_print                                0x704243b2   Thumb Code   184  printer.o(.text)
    PRN_status                               0x7042446a   Thumb Code   220  printer.o(.text)
    PRN_select_font                          0x70424546   Thumb Code    82  printer.o(.text)
    PRN_dnld_char                            0x70424598   Thumb Code   106  printer.o(.text)
    PRN_sel_tbl_dnld_char                    0x70424602   Thumb Code    42  printer.o(.text)
    PRN_dnld_font_file                       0x7042462c   Thumb Code   208  printer.o(.text)
    PRN_dnld_graphic_file                    0x704246fc   Thumb Code   160  printer.o(.text)
    PRN_print_graphic                        0x7042479c   Thumb Code   116  printer.o(.text)
    insert_char                              0x70424834   Thumb Code    56  Insrtch.o(.text)
    p_int2str                                0x7042486c   Thumb Code    50  Int2str.o(.text)
    int2str                                  0x7042489e   Thumb Code    24  Int2str.o(.text)
    p_long2str                               0x704248b6   Thumb Code    50  Long2str.o(.text)
    long2str                                 0x704248e8   Thumb Code    24  Long2str.o(.text)
    set_itimeout                             0x70424900   Thumb Code    38  setitim.o(.text)
    connectDebugServer                       0x7042492c   Thumb Code    66  logsys.o(.text)
    LOG_INIT                                 0x7042496e   Thumb Code   362  logsys.o(.text)
    vLogMessage                              0x70424ad8   Thumb Code   146  logsys.o(.text)
    vLogMessageFilter                        0x70424b6a   Thumb Code   148  logsys.o(.text)
    vLogComm                                 0x70424bfe   Thumb Code   386  logsys.o(.text)
    logToPipe                                0x70424d80   Thumb Code    52  logsys.o(.text)
    vPfrStoreErrorMessage                    0x70424db4   Thumb Code   372  logsys.o(.text)
    vLogError                                0x70424f28   Thumb Code   454  logsys.o(.text)
    vLogMessageBinary                        0x704250ee   Thumb Code   314  logsys.o(.text)
    get_dock_status                          0x7042523c   Thumb Code     8  power.o(.text)
    get_powerswitch_status                   0x70425244   Thumb Code     8  power.o(.text)
    select_comm_device                       0x7042524c   Thumb Code    26  device.o(.text)
    set_radio_power                          0x70425266   Thumb Code    26  device.o(.text)
    _dbltoa                                  0x70425280   Thumb Code   466  _dbltoa.opi(.text)
    act_kbd_pending_test                     0x70425464   Thumb Code    26  actutil.o(.text)
    GetVersion                               0x7042547e   Thumb Code     4  actutil.o(.text)
    cvt_ym                                   0x70425482   Thumb Code    78  actutil.o(.text)
    Inline ARM to Thumb Veneer to sscanf     0x704254dc   ARM Code       0  sscanf.opi(.text)
    sscanf                                   0x704254e4   Thumb Code    44  sscanf.opi(.text)
    str2int                                  0x70425518   Thumb Code    66  Str2int.o(.text)
    _scanf_                                  0x7042555c   Thumb Code  1486  _scanff.opi(.text)
    _sgetchar                                0x70425b30   Thumb Code    24  _sgetc.opi(.text)
    _sungetc                                 0x70425b48   Thumb Code    16  _sgetc.opi(.text)
    SVC_2INT                                 0x70425b58   Thumb Code    40  cs_int.oi(.text)
    SVC_INT2                                 0x70425b80   Thumb Code    64  cs_int.oi(.text)
    ntocs                                    0x70425bc0   Thumb Code    56  ntocs.o(.text)
    _strtod                                  0x70425bf8   Thumb Code   164  _strtod.opi(.text)
    _int_scan                                0x70425cc0   Thumb Code   316  _intscan.opi(.text)
    _flt_scan                                0x70425e00   Thumb Code   408  _fltscan.opi(.text)
    _atodbl                                  0x7042604e   Thumb Code   714  _atodbl.opi(.text)
    __call_via_r0                            0x70426330   Thumb Code     4  callvia.o(.text)
    __call_via_r1                            0x70426332   Thumb Code     4  callvia.o(.text)
    __call_via_r2                            0x70426334   Thumb Code     4  callvia.o(.text)
    __call_via_r3                            0x70426336   Thumb Code     4  callvia.o(.text)
    __call_via_r4                            0x70426338   Thumb Code     4  callvia.o(.text)
    __call_via_r5                            0x7042633a   Thumb Code     4  callvia.o(.text)
    __call_via_r6                            0x7042633c   Thumb Code     4  callvia.o(.text)
    __call_via_r7                            0x7042633e   Thumb Code     4  callvia.o(.text)
    Inline Thumb to ARM Veneer to __rt_switch8 0x70426340   Thumb Code     0  switch8.o(.text)
    __rt_switch8                             0x70426344   ARM Code      24  switch8.o(.text)
    Short Thumb to ARM Veneer to strlen      0x7042635c   Thumb Code     0  anon$$obj.o(Veneer$$Code)
    Short Thumb to ARM Veneer to strcpy      0x70426364   Thumb Code     0  anon$$obj.o(Veneer$$Code)
    Short Thumb to ARM Veneer to __rt_memclr_w 0x7042636c   Thumb Code     0  anon$$obj.o(Veneer$$Code)
    Short Thumb to ARM Veneer to memcmp      0x70426374   Thumb Code     0  anon$$obj.o(Veneer$$Code)
    Short Thumb to ARM Veneer to __rt_memcpy 0x7042637c   Thumb Code     0  anon$$obj.o(Veneer$$Code)
    Short Thumb to ARM Veneer to strcat      0x70426384   Thumb Code     0  anon$$obj.o(Veneer$$Code)
    Short Thumb to ARM Veneer to _uprint     0x7042638c   Thumb Code     0  anon$$obj.o(Veneer$$Code)
    Short Thumb to ARM Veneer to rename      0x70426394   Thumb Code     0  anon$$obj.o(Veneer$$Code)
    Short Thumb to ARM Veneer to remove      0x7042639c   Thumb Code     0  anon$$obj.o(Veneer$$Code)
    Short Thumb to ARM Veneer to atoi        0x704263a4   Thumb Code     0  anon$$obj.o(Veneer$$Code)
    Short Thumb to ARM Veneer to __rt_memclr 0x704263ac   Thumb Code     0  anon$$obj.o(Veneer$$Code)
    Short Thumb to ARM Veneer to __rt_memset 0x704263b4   Thumb Code     0  anon$$obj.o(Veneer$$Code)
    Short Thumb to ARM Veneer to strncat     0x704263bc   Thumb Code     0  anon$$obj.o(Veneer$$Code)
    Short Thumb to ARM Veneer to strncpy     0x704263c4   Thumb Code     0  anon$$obj.o(Veneer$$Code)
    Short Thumb to ARM Veneer to strcmp      0x704263cc   Thumb Code     0  anon$$obj.o(Veneer$$Code)
    Short Thumb to ARM Veneer to ltoa        0x704263d4   Thumb Code     0  anon$$obj.o(Veneer$$Code)
    Short Thumb to ARM Veneer to strncmp     0x704263dc   Thumb Code     0  anon$$obj.o(Veneer$$Code)
    Short Thumb to ARM Veneer to strstr      0x704263e4   Thumb Code     0  anon$$obj.o(Veneer$$Code)
    Short Thumb to ARM Veneer to __rt_sdiv10 0x704263ec   Thumb Code     0  anon$$obj.o(Veneer$$Code)
    Short Thumb to ARM Veneer to __rt_udiv10 0x704263f4   Thumb Code     0  anon$$obj.o(Veneer$$Code)
    Short Thumb to ARM Veneer to toupper     0x704263fc   Thumb Code     0  anon$$obj.o(Veneer$$Code)
    Short Thumb to ARM Veneer to strchr      0x70426404   Thumb Code     0  anon$$obj.o(Veneer$$Code)
    Short Thumb to ARM Veneer to strspn      0x7042640c   Thumb Code     0  anon$$obj.o(Veneer$$Code)
    Short Thumb to ARM Veneer to strrchr     0x70426414   Thumb Code     0  anon$$obj.o(Veneer$$Code)
    Short Thumb to ARM Veneer to _strtoul    0x7042641c   Thumb Code     0  anon$$obj.o(Veneer$$Code)
    Short Thumb to ARM Veneer to _strtol     0x70426424   Thumb Code     0  anon$$obj.o(Veneer$$Code)
    Short Thumb to ARM Veneer to _sltoa      0x7042642c   Thumb Code     0  anon$$obj.o(Veneer$$Code)
    Inline Thumb to ARM Veneer to _dneg      0x70426434   Thumb Code     0  basic.o(x$fpl$basic)
    _dneg                                    0x70426438   ARM Code       8  basic.o(x$fpl$basic)
    _fneg                                    0x70426440   ARM Code       8  basic.o(x$fpl$basic)
    _dabs                                    0x70426448   ARM Code       8  basic.o(x$fpl$basic)
    _fabs                                    0x70426450   ARM Code       8  basic.o(x$fpl$basic)
    Inline Thumb to ARM Veneer to _d2f       0x70426458   Thumb Code     0  d2f.o(x$fpl$d2f)
    _d2f                                     0x7042645c   ARM Code     180  d2f.o(x$fpl$d2f)
    __fpl_inf_d2f                            0x70426508   ARM Code       0  d2f.o(x$fpl$d2f)
    Inline Thumb to ARM Veneer to _dadd      0x70426514   Thumb Code     0  daddsub.o(x$fpl$dadd)
    _dadd                                    0x70426518   ARM Code     504  daddsub.o(x$fpl$dadd)
    __fpl_inf_dadd                           0x704266c8   ARM Code       0  daddsub.o(x$fpl$dadd)
    __fpl_dcheck_NaN2                        0x70426720   ARM Code      12  dcheck.o(x$fpl$dcheck)
    __fpl_dcheck_NaN1                        0x70426730   ARM Code      12  dcheck1.o(x$fpl$dcheck1)
    __fpl_dcmp_InfNaN                        0x70426740   ARM Code     116  dcmpin.o(x$fpl$dcmpinfnan)
    __fpl_inf_dcmp                           0x70426764   ARM Code       0  dcmpin.o(x$fpl$dcmpinfnan)
    Inline Thumb to ARM Veneer to _ddiv      0x704267b4   Thumb Code     0  ddiv.o(x$fpl$ddiv)
    _ddiv                                    0x704267b8   ARM Code     564  ddiv.o(x$fpl$ddiv)
    __fpl_inf_ddiv                           0x70426988   ARM Code       0  ddiv.o(x$fpl$ddiv)
    _ddiv_mantissas                          0x704269ec   ARM Code     608  ddiv.o(x$fpl$ddiv)
    Inline Thumb to ARM Veneer to _dcmpeq    0x70426ce0   Thumb Code     0  deqf.o(x$fpl$deqf)
    _dcmpeq                                  0x70426ce4   ARM Code     132  deqf.o(x$fpl$deqf)
    Inline Thumb to ARM Veneer to _dfix      0x70426d6c   Thumb Code     0  dfix.o(x$fpl$dfix)
    _dfix                                    0x70426d70   ARM Code       0  dfix.o(x$fpl$dfix)
    __fpl_inf_dfix                           0x70426e08   ARM Code       0  dfix.o(x$fpl$dfix)
    Inline Thumb to ARM Veneer to _dcmpge    0x70426e18   Thumb Code     0  dgeqf.o(x$fpl$dgeqf)
    _dcmpge                                  0x70426e1c   ARM Code     132  dgeqf.o(x$fpl$dgeqf)
    Inline Thumb to ARM Veneer to _dcmple    0x70426ea4   Thumb Code     0  dleqf.o(x$fpl$dleqf)
    _dcmple                                  0x70426ea8   ARM Code     132  dleqf.o(x$fpl$dleqf)
    Inline Thumb to ARM Veneer to _dmul      0x70426f30   Thumb Code     0  dmul_mull.o(x$fpl$dmul)
    _dmul                                    0x70426f34   ARM Code     504  dmul_mull.o(x$fpl$dmul)
    __fpl_inf_dmul                           0x704270f8   ARM Code       0  dmul_mull.o(x$fpl$dmul)
    Inline Thumb to ARM Veneer to _dsub      0x70427140   Thumb Code     0  daddsub.o(x$fpl$dsub)
    _dsub                                    0x70427144   ARM Code     624  daddsub.o(x$fpl$dsub)
    __fpl_inf_dsub                           0x7042736c   ARM Code       0  daddsub.o(x$fpl$dsub)
    __dunder                                 0x704273c0   ARM Code     272  dunder.o(x$fpl$dunder)
    __dunder_d                               0x704274d0   ARM Code       4  dunder.o(x$fpl$dunder)
    Inline Thumb to ARM Veneer to _fp_init   0x704274d4   Thumb Code     0  fpinit.o(x$fpl$fpinit)
    _fp_init                                 0x704274d8   ARM Code      24  fpinit.o(x$fpl$fpinit)
    __fplib_config_pureend_doubles           0x704274e8   ARM Code       0  fpinit.o(x$fpl$fpinit)
    __funder                                 0x704274f0   ARM Code     140  funder.o(x$fpl$funder)
    __funder_d                               0x7042757c   ARM Code       4  funder.o(x$fpl$funder)
    __fpl_return_NaN                         0x70427580   ARM Code      64  retnan.o(x$fpl$retnan)
    __fpl_cmpreturn                          0x704275c8   ARM Code      60  trapv.o(x$fpl$trapveneer)
    DEV_CONSOLE                              0x70427604   Data          13  sysrodat.oi(.constdata)
    DEV_COM3                                 0x70427611   Data          10  sysrodat.oi(.constdata)
    DEV_COM4                                 0x7042761b   Data          10  sysrodat.oi(.constdata)
    DEV_COM6                                 0x70427625   Data          10  sysrodat.oi(.constdata)
    _uctype                                  0x7042762f   Data         257  _uctype.opi(.constdata)
    PRN200EsqSeq                             0x70427730   Data         628  printer.o(.constdata)
    PRN250EsqSeq                             0x704279a4   Data         628  printer.o(.constdata)
    PRN300EsqSeq                             0x70427c18   Data         628  printer.o(.constdata)
    PRN350EsqSeq                             0x70427e8c   Data         628  printer.o(.constdata)
    PRN500EsqSeq                             0x70428100   Data         628  printer.o(.constdata)
    PRN600EsqSeq                             0x70428374   Data         628  printer.o(.constdata)
    PRN700EsqSeq                             0x704285e8   Data         628  printer.o(.constdata)
    PRN900EsqSeq                             0x7042885c   Data         628  printer.o(.constdata)
    PRN950EsqSeq                             0x70428ad0   Data         628  printer.o(.constdata)
    PRN3300EsqSeq                            0x70428d44   Data         628  printer.o(.constdata)
    PRN3600EsqSeq                            0x70428fb8   Data         628  printer.o(.constdata)
    PRN3700EsqSeq                            0x7042922c   Data         628  printer.o(.constdata)
    __dInf                                   0x704296a4   Data           0  fpconst.o(c$$constdata)
    __huge_val                               0x704296a4   Data           0  fpconst.o(c$$constdata)
    __dNaN                                   0x704296ac   Data           0  fpconst.o(c$$constdata)
    __fInf                                   0x704296b4   Data           0  fpconst.o(c$$constdata)
    __fNaN                                   0x704296b8   Data           0  fpconst.o(c$$constdata)
    Load$$DATA$$Base                         0x704296bc   Number         0  anon$$obj.o ABSOLUTE
    Image$$DATA$$Base                        0x70429c00   Number         0  anon$$obj.o ABSOLUTE
    _stop_link_warning_                      0x70429c00   Data           4  vrxcrt_t.o(.data)
    SDLC_T                                   0x70429c10   Data           8  porting.o(.data)
    SDLC_CMD                                 0x70429c18   Data         272  porting.o(.data)
    SDLC_R                                   0x70429d28   Data          96  porting.o(.data)
    SDLC_E                                   0x70429d88   Data          72  porting.o(.data)
    giDockStatus                             0x70429dd0   Data           4  beetle.o(.data)
    giBatteryValue                           0x70429dd4   Data           4  beetle.o(.data)
    giCom3OpenStatus                         0x70429dd8   Data           4  beetle.o(.data)
    giCom6OpenStatus                         0x70429ddc   Data           4  beetle.o(.data)
    _stop_link_ZIwarning_                    0x70429dec   Data           4  vrxcrt_t.o(.bss)
    retCom                                   0x70429df8   Data          24  app_sys.o(.bss)
    parm                                     0x70429e10   Data          36  app_sys.o(.bss)
    gKBDEvent                                0x7042a65e   Data           1  beetle.o(.bss)
    gMagEvent                                0x7042a65f   Data           1  beetle.o(.bss)
    xstatus_info                             0x7042a900   Data           5  xmodem.o(.bss)
    LOGPORT                                  0x7042a910   Data           2  logsys.o(.bss)
    sPortStat                                0x7042a912   Data           2  logsys.o(.bss)
    initsem                                  0x7042a914   Data           2  logsys.o(.bss)
    LOG_TYPE                                 0x7042a916   Data           2  logsys.o(.bss)
    logFileSize                              0x7042a918   Data           4  logsys.o(.bss)
    FILTER                                   0x7042a91c   Data           4  logsys.o(.bss)
    PRINTF_FILTER                            0x7042a920   Data           4  logsys.o(.bss)
    PRINTF_LOCK_semaphore                    0x7042a924   Data           4  logsys.o(.bss)
    APPNAME                                  0x7042a928   Data          10  logsys.o(.bss)
    pchFormatMessageBuf                      0x7042a932   Data        1100  logsys.o(.bss)

